_IOAlignmentToSize
_IOBSDNameMatching
_IOBSDRegistryEntryForDeviceTree
_IOBSDRegistryEntryGetData
_IOBSDRegistryEntryRelease
_IOCreateThread
_IODTFreeLoaderInfo
_IODTGetLoaderInfo
_IODelay
_IOExitThread
_IOFindBSDRoot
_IOFindNameForValue
_IOFindValueForName
_IOFlushProcessorCache
_IOFree
_IOFreeAligned
_IOFreeContiguous
_IOFreePageable
_IOGetTime
_IOIteratePageableMaps
_IOKitBSDInit
_IOLibInit
_IOLockAlloc
_IOLockFree
_IOLockGetMachLock
_IOLockInitWithState
_IOLockLock:_lck_mtx_lock
_IOLockSleep
_IOLockSleepDeadline
_IOLockTryLock:_lck_mtx_try_lock
_IOLockUnlock:_lck_mtx_unlock
_IOLockWakeup
_IOLog
_IOLogv
_IOMalloc
_IOMallocAligned
_IOMallocContiguous
_IOMallocPageable
_IOMappedRead16
_IOMappedRead32
_IOMappedRead64
_IOMappedRead8
_IOMappedWrite16
_IOMappedWrite32
_IOMappedWrite64
_IOMappedWrite8
_IONDRVLibrariesInitialize
_IONetworkNamePrefixMatching
_IOPageableMapForAddress
_IOPause
_IOPrintPlane
_IORWLockAlloc
_IORWLockFree
_IORWLockGetMachLock
_IORWLockRead:_lck_rw_lock_shared
_IORWLockUnlock:_lck_rw_done
_IORWLockWrite:_lck_rw_lock_exclusive
_IORecursiveLockAlloc
_IORecursiveLockAllocWithLockGroup
_IORecursiveLockFree
_IORecursiveLockGetMachLock
_IORecursiveLockHaveLock
_IORecursiveLockLock
_IORecursiveLockSleep
_IORecursiveLockSleepDeadline
_IORecursiveLockTryLock
_IORecursiveLockUnlock
_IORecursiveLockWakeup
_IOSetProcessorCacheMode
_IOSimpleLockAlloc
_IOSimpleLockFree
_IOSimpleLockGetMachLock
_IOSimpleLockInit
_IOSimpleLockLock:_lck_spin_lock
_IOSimpleLockTryLock:_lck_spin_try_lock
_IOSimpleLockUnlock:_lck_spin_unlock
_IOSizeToAlignment
_IOSleep
_IOSleepWithLeeway
_IOSystemShutdownNotification
_IOZeroTvalspec
_OSKernelStackRemaining
_OSPrintMemory
_PEGetGMTTimeOfDay
_PEGetMachineName
_PEGetModelName
_PEGetPlatformEpoch
_PEHaltRestart
_PESavePanicInfo
_PESetGMTTimeOfDay
_PE_call_timebase_callback
_PE_cpu_halt
_PE_cpu_machine_init
_PE_cpu_machine_quiesce
_PE_cpu_signal
_PE_cpu_start
_PE_enter_debugger
_PE_halt_restart
_PE_parse_boot_argn
_PE_poll_input
_StartIOKit
__Z17IODTMapInterruptsP15IORegistryEntry
__Z17IODeviceTreeAllocPv
__Z17IOServiceOrderingPK15OSMetaClassBaseS1_Pv
__Z18IODTCompareNubNamePK15IORegistryEntryP8OSStringPS3_
__Z19printDictionaryKeysP12OSDictionaryPc
__Z20IODTMatchNubWithKeysP15IORegistryEntryPKc
__Z21IODTResolveAddressingP15IORegistryEntryPKcP14IODeviceMemory
__Z27IODTInterruptControllerNameP15IORegistryEntry
__ZN10IOMachPort10gMetaClassE
__ZN10IOMachPort10superClassE
__ZN10IOMachPort11dictForTypeEj
__ZN10IOMachPort13portForObjectEP8OSObjectj
__ZN10IOMachPort14setHoldDestroyEP8OSObjectj
__ZN10IOMachPort20makeSendRightForTaskEP4taskP8OSObjectj
__ZN10IOMachPort20releasePortForObjectEP8OSObjectj
__ZN10IOMachPort22noMoreSendersForObjectEP8OSObjectjPj
__ZN10IOMachPort4freeEv
__ZN10IOMachPort9MetaClassC1Ev
__ZN10IOMachPort9MetaClassC2Ev
__ZN10IOMachPort9metaClassE
__ZN10IOMachPortC1EPK11OSMetaClass
__ZN10IOMachPortC1Ev
__ZN10IOMachPortC2EPK11OSMetaClass
__ZN10IOMachPortC2Ev
__ZN10IOMachPortD0Ev
__ZN10IOMachPortD2Ev
__ZN10IONotifier10gMetaClassE
__ZN10IONotifier10superClassE
__ZN10IONotifier9MetaClassC1Ev
__ZN10IONotifier9MetaClassC2Ev
__ZN10IONotifier9metaClassE
__ZN10IONotifierC2EPK11OSMetaClass
__ZN10IONotifierD2Ev
__ZN10IOWorkLoop10gMetaClassE
__ZN10IOWorkLoop10superClassE
__ZN10IOWorkLoop10threadMainEv
__ZN10IOWorkLoop10wakeupGateEPvb
__ZN10IOWorkLoop12tryCloseGateEv
__ZN10IOWorkLoop13_maintRequestEPvS0_S0_S0_
__ZN10IOWorkLoop14addEventSourceEP13IOEventSource
__ZN10IOWorkLoop15runEventSourcesEv
__ZN10IOWorkLoop17removeEventSourceEP13IOEventSource
__ZN10IOWorkLoop18setMaximumLockTimeEyj
__ZN10IOWorkLoop19signalWorkAvailableEv
__ZN10IOWorkLoop4freeEv
__ZN10IOWorkLoop4initEv
__ZN10IOWorkLoop8openGateEv
__ZN10IOWorkLoop8workLoopEv
__ZN10IOWorkLoop9MetaClassC1Ev
__ZN10IOWorkLoop9MetaClassC2Ev
__ZN10IOWorkLoop9closeGateEv
__ZN10IOWorkLoop9metaClassE
__ZN10IOWorkLoop9runActionEPFiP8OSObjectPvS2_S2_S2_ES1_S2_S2_S2_S2_
__ZN10IOWorkLoopC1EPK11OSMetaClass
__ZN10IOWorkLoopC1Ev
__ZN10IOWorkLoopC2EPK11OSMetaClass
__ZN10IOWorkLoopC2Ev
__ZN10IOWorkLoopD0Ev
__ZN10IOWorkLoopD2Ev
__ZN11IOCatalogue10addDriversEP7OSArrayb
__ZN11IOCatalogue10gMetaClassE
__ZN11IOCatalogue10initializeEv
__ZN11IOCatalogue10superClassE
__ZN11IOCatalogue13removeDriversEP12OSDictionaryb
__ZN11IOCatalogue13startMatchingEP12OSDictionary
__ZN11IOCatalogue15moduleHasLoadedEP8OSString
__ZN11IOCatalogue15moduleHasLoadedEPKc
__ZN11IOCatalogue16terminateDriversEP12OSDictionary
__ZN11IOCatalogue25terminateDriversForModuleEP8OSStringb
__ZN11IOCatalogue25terminateDriversForModuleEPKcb
__ZN11IOCatalogue4freeEv
__ZN11IOCatalogue4initEP7OSArray
__ZN11IOCatalogue5resetEv
__ZN11IOCatalogue9MetaClassC1Ev
__ZN11IOCatalogue9MetaClassC2Ev
__ZN11IOCatalogue9metaClassE
__ZN11IOCatalogueC1EPK11OSMetaClass
__ZN11IOCatalogueC1Ev
__ZN11IOCatalogueC2EPK11OSMetaClass
__ZN11IOCatalogueC2Ev
__ZN11IOCatalogueD0Ev
__ZN11IOCatalogueD2Ev
__ZN11IODataQueue10gMetaClassE
__ZN11IODataQueue10superClassE
__ZN11IODataQueue19getMemoryDescriptorEv
__ZN11IODataQueue19setNotificationPortEP8ipc_port
__ZN11IODataQueue29sendDataAvailableNotificationEv
__ZN11IODataQueue4freeEv
__ZN11IODataQueue9MetaClassC1Ev
__ZN11IODataQueue9MetaClassC2Ev
__ZN11IODataQueue9metaClassE
__ZN11IODataQueueC1EPK11OSMetaClass
__ZN11IODataQueueC1Ev
__ZN11IODataQueueC2EPK11OSMetaClass
__ZN11IODataQueueC2Ev
__ZN11IODataQueueD0Ev
__ZN11IODataQueueD2Ev
__ZN11IOMemoryMap10gMetaClassE
__ZN11IOMemoryMap10superClassE
__ZN11IOMemoryMap13getMapOptionsEv
__ZN11IOMemoryMap14getAddressTaskEv
__ZN11IOMemoryMap17getVirtualAddressEv
__ZN11IOMemoryMap18getPhysicalAddressEv
__ZN11IOMemoryMap19getMemoryDescriptorEv
__ZN11IOMemoryMap5unmapEv
__ZN11IOMemoryMap9MetaClassC1Ev
__ZN11IOMemoryMap9MetaClassC2Ev
__ZN11IOMemoryMap9getLengthEv
__ZN11IOMemoryMap9metaClassE
__ZN11IOMemoryMapC1EPK11OSMetaClass
__ZN11IOMemoryMapC1Ev
__ZN11IOMemoryMapC2EPK11OSMetaClass
__ZN11IOMemoryMapC2Ev
__ZN11IOMemoryMapD0Ev
__ZN11IOMemoryMapD2Ev
__ZN11IOResources10gMetaClassE
__ZN11IOResources10superClassE
__ZN11IOResources13setPropertiesEP8OSObject
__ZN11IOResources18matchPropertyTableEP12OSDictionary
__ZN11IOResources9MetaClassC1Ev
__ZN11IOResources9MetaClassC2Ev
__ZN11IOResources9metaClassE
__ZN11IOResources9resourcesEv
__ZN11IOResourcesC1EPK11OSMetaClass
__ZN11IOResourcesC1Ev
__ZN11IOResourcesC2EPK11OSMetaClass
__ZN11IOResourcesC2Ev
__ZN11IOResourcesD0Ev
__ZN11IOResourcesD2Ev
__ZN12IODMACommand10gMetaClassE
__ZN12IODMACommand10superClassE
__ZN12IODMACommand10withRefConEPv
__ZN12IODMACommand10writeBytesEyPKvy
__ZN12IODMACommand12cloneCommandEPv
__ZN12IODMACommand12getAlignmentEv
__ZN12IODMACommand14initWithRefConEPv
__ZN12IODMACommand17getNumAddressBitsEv
__ZN12IODMACommand18getAlignmentLengthEv
__ZN12IODMACommand19setMemoryDescriptorEPK18IOMemoryDescriptorb
__ZN12IODMACommand21clearMemoryDescriptorEb
__ZNK12IODMACommand21getIOMemoryDescriptorEv
__ZN12IODMACommand26getPreparedOffsetAndLengthEPyS0_
__ZN12IODMACommand28getAlignmentInternalSegmentsEv
__ZN12IODMACommand4freeEv
__ZN12IODMACommand7prepareEyybb
__ZN12IODMACommand8completeEbb
__ZN12IODMACommand9MetaClassC1Ev
__ZN12IODMACommand9MetaClassC2Ev
__ZN12IODMACommand9metaClassE
__ZN12IODMACommand9readBytesEyPvy
__ZN12IODMACommandC1EPK11OSMetaClass
__ZN12IODMACommandC1Ev
__ZN12IODMACommandC2EPK11OSMetaClass
__ZN12IODMACommandC2Ev
__ZN12IODMACommandD0Ev
__ZN12IODMACommandD2Ev
__ZN12IOPMinformee10gMetaClassE
__ZN12IOPMinformee10initializeEP9IOService
__ZN12IOPMinformee10superClassE
__ZN12IOPMinformee4freeEv
__ZN12IOPMinformee9MetaClassC1Ev
__ZN12IOPMinformee9MetaClassC2Ev
__ZN12IOPMinformee9metaClassE
__ZN12IOPMinformeeC1EPK11OSMetaClass
__ZN12IOPMinformeeC1Ev
__ZN12IOPMinformeeC2EPK11OSMetaClass
__ZN12IOPMinformeeC2Ev
__ZN12IOPMinformeeD0Ev
__ZN12IOPMinformeeD2Ev
__ZN12IORootParent10dozeSystemEv
__ZN12IORootParent10gMetaClassE
__ZN12IORootParent10superClassE
__ZN12IORootParent10wakeSystemEv
__ZN12IORootParent11sleepSystemEv
__ZN12IORootParent11sleepToDozeEv
__ZN12IORootParent13restartSystemEv
__ZN12IORootParent14shutDownSystemEv
__ZN12IORootParent5startEP9IOService
__ZN12IORootParent9MetaClassC1Ev
__ZN12IORootParent9MetaClassC2Ev
__ZN12IORootParent9metaClassE
__ZN12IORootParentC1EPK11OSMetaClass
__ZN12IORootParentC1Ev
__ZN12IORootParentC2EPK11OSMetaClass
__ZN12IORootParentC2Ev
__ZN12IORootParentD0Ev
__ZN12IORootParentD2Ev
__ZN12IOUserClient10clientDiedEv
__ZN12IOUserClient10gMetaClassE
__ZN12IOUserClient10getServiceEv
__ZN12IOUserClient10initializeEv
__ZN12IOUserClient10superClassE
__ZN12IOUserClient11clientCloseEv
__ZN12IOUserClient13connectClientEPS_
__ZN12IOUserClient14externalMethodEjP25IOExternalMethodArgumentsP24IOExternalMethodDispatchP8OSObjectPv
__ZN12IOUserClient17setAsyncReferenceEPjP8ipc_portPvS3_
__ZN12IOUserClient18clientHasPrivilegeEPvPKc
__ZN12IOUserClient20exportObjectToClientEP4taskP8OSObjectPS3_
__ZN12IOUserClient21destroyUserReferencesEP8OSObject
__ZN12IOUserClient21copyClientEntitlementEP4taskPKc
__ZN12IOUserClient22clientHasAuthorizationEP4taskP9IOService
__ZN12IOUserClient23releaseAsyncReference64EPy
__ZN12IOUserClient23releaseNotificationPortEP8ipc_port
__ZN12IOUserClient26removeMappingForDescriptorEP18IOMemoryDescriptor
__ZN12IOUserClient4freeEv
__ZN12IOUserClient4initEP12OSDictionary
__ZN12IOUserClient4initEv
__ZN12IOUserClient9MetaClassC1Ev
__ZN12IOUserClient9MetaClassC2Ev
__ZN12IOUserClient9metaClassE
__ZN12IOUserClientC1EPK11OSMetaClass
__ZN12IOUserClientC2EPK11OSMetaClass
__ZN12IOUserClientD0Ev
__ZN12IOUserClientD2Ev
__ZN13IOCommandGate10gMetaClassE
__ZN13IOCommandGate10runCommandEPvS0_S0_S0_
__ZN13IOCommandGate10superClassE
__ZN13IOCommandGate11commandGateEP8OSObjectPFiS1_PvS2_S2_S2_E
__ZN13IOCommandGate11setWorkLoopEP10IOWorkLoop
__ZN13IOCommandGate13attemptActionEPFiP8OSObjectPvS2_S2_S2_ES2_S2_S2_S2_
__ZN13IOCommandGate13commandWakeupEPvb
__ZN13IOCommandGate14attemptCommandEPvS0_S0_S0_
__ZN13IOCommandGate4freeEv
__ZN13IOCommandGate4initEP8OSObjectPFiS1_PvS2_S2_S2_E
__ZN13IOCommandGate6enableEv
__ZN13IOCommandGate7disableEv
__ZN13IOCommandGate9MetaClassC1Ev
__ZN13IOCommandGate9MetaClassC2Ev
__ZN13IOCommandGate9metaClassE
__ZN13IOCommandGate9runActionEPFiP8OSObjectPvS2_S2_S2_ES2_S2_S2_S2_
__ZN13IOCommandGateC1EPK11OSMetaClass
__ZN13IOCommandGateC1Ev
__ZN13IOCommandGateC2EPK11OSMetaClass
__ZN13IOCommandGateC2Ev
__ZN13IOCommandGateD0Ev
__ZN13IOCommandGateD2Ev
__ZN13IOCommandPool10gMetaClassE
__ZN13IOCommandPool10getCommandEb
__ZN13IOCommandPool10superClassE
__ZN13IOCommandPool12withWorkLoopEP10IOWorkLoop
__ZN13IOCommandPool13returnCommandEP9IOCommand
__ZN13IOCommandPool15gatedGetCommandEPP9IOCommandb
__ZN13IOCommandPool16initWithWorkLoopEP10IOWorkLoop
__ZN13IOCommandPool18gatedReturnCommandEP9IOCommand
__ZN13IOCommandPool4freeEv
__ZN13IOCommandPool9MetaClassC1Ev
__ZN13IOCommandPool9MetaClassC2Ev
__ZN13IOCommandPool9metaClassE
__ZN13IOCommandPoolC1EPK11OSMetaClass
__ZN13IOCommandPoolC1Ev
__ZN13IOCommandPoolC2EPK11OSMetaClass
__ZN13IOCommandPoolC2Ev
__ZN13IOCommandPoolD0Ev
__ZN13IOCommandPoolD2Ev
__ZN13IOEventSource10gMetaClassE
__ZN13IOEventSource10superClassE
__ZN13IOEventSource10wakeupGateEPvb
__ZN13IOEventSource11setWorkLoopEP10IOWorkLoop
__ZN13IOEventSource12checkForWorkEv
__ZN13IOEventSource12tryCloseGateEv
__ZN13IOEventSource19signalWorkAvailableEv
__ZN13IOEventSource4freeEv
__ZN13IOEventSource4initEP8OSObjectPFvS1_zE
__ZN13IOEventSource6enableEv
__ZN13IOEventSource7disableEv
__ZN13IOEventSource7setNextEPS_
__ZN13IOEventSource8openGateEv
__ZN13IOEventSource9MetaClassC1Ev
__ZN13IOEventSource9MetaClassC2Ev
__ZN13IOEventSource9closeGateEv
__ZN13IOEventSource9metaClassE
__ZN13IOEventSource9setActionEPFvP8OSObjectzE
__ZN13IOEventSourceC1EPK11OSMetaClass
__ZN13IOEventSourceC2EPK11OSMetaClass
__ZN13IOEventSourceD0Ev
__ZN13IOEventSourceD2Ev
__ZN13_IOServiceJob10gMetaClassE
__ZN13_IOServiceJob10pingConfigEPS_
__ZN13_IOServiceJob10superClassE
__ZN13_IOServiceJob9MetaClassC1Ev
__ZN13_IOServiceJob9MetaClassC2Ev
__ZN13_IOServiceJob9metaClassE
__ZN13_IOServiceJobC1EPK11OSMetaClass
__ZN13_IOServiceJobC1Ev
__ZN13_IOServiceJobC2EPK11OSMetaClass
__ZN13_IOServiceJobC2Ev
__ZN13_IOServiceJobD0Ev
__ZN13_IOServiceJobD2Ev
__ZN14IOMemoryCursor10gMetaClassE
__ZN14IOMemoryCursor10superClassE
__ZN14IOMemoryCursor9MetaClassC1Ev
__ZN14IOMemoryCursor9MetaClassC2Ev
__ZN14IOMemoryCursor9metaClassE
__ZN14IOMemoryCursorC1EPK11OSMetaClass
__ZN14IOMemoryCursorC1Ev
__ZN14IOMemoryCursorC2EPK11OSMetaClass
__ZN14IOMemoryCursorC2Ev
__ZN14IOMemoryCursorD0Ev
__ZN14IOMemoryCursorD2Ev
__ZN14IOPMrootDomain10gMetaClassE
__ZN14IOPMrootDomain10superClassE
__ZN14IOPMrootDomain11sleepSystemEv
__ZN14IOPMrootDomain12tellChangeUpEm
__ZN14IOPMrootDomain12wakeFromDozeEv
__ZN14IOPMrootDomain13askChangeDownEm
__ZN14IOPMrootDomain13copyPMSettingEP8OSSymbol
__ZN14IOPMrootDomain13restartSystemEv
__ZN14IOPMrootDomain13setPropertiesEP8OSObject
__ZN14IOPMrootDomain14publishFeatureEPKc
__ZN14IOPMrootDomain14publishFeatureEPKcjPj
__ZN14IOPMrootDomain14shutdownSystemEv
__ZN14IOPMrootDomain14tellChangeDownEm
__ZN14IOPMrootDomain15powerChangeDoneEm
__ZN14IOPMrootDomain16tellNoChangeDownEm
__ZN14IOPMrootDomain17createPMAssertionEyjP9IOServicePKc
__ZN14IOPMrootDomain17getSleepSupportedEv
__ZN14IOPMrootDomain17setAggressivenessEmm
__ZN14IOPMrootDomain18changePowerStateToEm
__ZN14IOPMrootDomain18releasePMAssertionEy
__ZN14IOPMrootDomain19getPMAssertionLevelEy
__ZN14IOPMrootDomain19setPMAssertionLevelEyj
__ZN14IOPMrootDomain22changePowerStateToPrivEm
__ZN14IOPMrootDomain22removePublishedFeatureEj
__ZN14IOPMrootDomain23requestPowerDomainStateEmP17IOPowerConnectionm
__ZN14IOPMrootDomain24systemPowerEventOccurredEPK8OSSymbolP8OSObject
__ZN14IOPMrootDomain24systemPowerEventOccurredEPK8OSSymbolj
__ZN14IOPMrootDomain27registerPMSettingControllerEPPK8OSSymbolPFiP8OSObjectS2_S5_mES5_mPS5_
__ZN14IOPMrootDomain27registerPMSettingControllerEPPK8OSSymboljPFiP8OSObjectS2_S5_mES5_mPS5_
__ZN14IOPMrootDomain5startEP9IOService
__ZN14IOPMrootDomain9MetaClassC1Ev
__ZN14IOPMrootDomain9MetaClassC2Ev
__ZN14IOPMrootDomain9constructEv
__ZN14IOPMrootDomain9metaClassE
__ZN14IOPMrootDomainC1EPK11OSMetaClass
__ZN14IOPMrootDomainC1Ev
__ZN14IOPMrootDomainC2EPK11OSMetaClass
__ZN14IOPMrootDomainC2Ev
__ZN14IOPMrootDomainD0Ev
__ZN14IOPMrootDomainD2Ev
__ZN15IOConditionLock10gMetaClassE
__ZN15IOConditionLock10superClassE
__ZN15IOConditionLock10unlockWithEi
__ZN15IOConditionLock12setConditionEi
__ZN15IOConditionLock13withConditionEib
__ZN15IOConditionLock17initWithConditionEib
__ZN15IOConditionLock4freeEv
__ZN15IOConditionLock4lockEv
__ZN15IOConditionLock6unlockEv
__ZN15IOConditionLock7tryLockEv
__ZN15IOConditionLock8lockWhenEi
__ZN15IOConditionLock9MetaClassC1Ev
__ZN15IOConditionLock9MetaClassC2Ev
__ZN15IOConditionLock9metaClassE
__ZN15IOConditionLockC1EPK11OSMetaClass
__ZN15IOConditionLockC1Ev
__ZN15IOConditionLockC2EPK11OSMetaClass
__ZN15IOConditionLockC2Ev
__ZN15IOConditionLockD0Ev
__ZN15IOConditionLockD2Ev
__ZN15IODMAController10gMetaClassE
__ZN15IODMAController10superClassE
__ZN15IODMAController18completeDMACommandEP16IODMAEventSourceP12IODMACommand
__ZN15IODMAController5startEP9IOService
__ZN15IODMAController9MetaClassC1Ev
__ZN15IODMAController9MetaClassC2Ev
__ZN15IODMAController9metaClassE
__ZN15IODMAControllerC2EPK11OSMetaClass
__ZN15IODMAControllerD2Ev
__ZN15IOPMPowerSource10cycleCountEv
__ZN15IOPMPowerSource10gMetaClassE
__ZN15IOPMPowerSource10isChargingEv
__ZN15IOPMPowerSource10setVoltageEj
__ZN15IOPMPowerSource10superClassE
__ZN15IOPMPowerSource11adapterInfoEv
__ZN15IOPMPowerSource11atWarnLevelEv
__ZN15IOPMPowerSource11maxCapacityEv
__ZN15IOPMPowerSource11powerSourceEv
__ZN15IOPMPowerSource11setAmperageEi
__ZN15IOPMPowerSource11setLocationEi
__ZN15IOPMPowerSource12manufacturerEv
__ZN15IOPMPowerSource12updateStatusEv
__ZN15IOPMPowerSource13getPSPropertyEPK8OSSymbol
__ZN15IOPMPowerSource13setCycleCountEj
__ZN15IOPMPowerSource13setIsChargingEb
__ZN15IOPMPowerSource13setPSPropertyEPK8OSSymbolP8OSObject
__ZN15IOPMPowerSource13timeRemainingEv
__ZN15IOPMPowerSource14errorConditionEv
__ZN15IOPMPowerSource14setAdapterInfoEi
__ZN15IOPMPowerSource14setAtWarnLevelEb
__ZN15IOPMPowerSource14setMaxCapacityEj
__ZN15IOPMPowerSource15atCriticalLevelEv
__ZN15IOPMPowerSource15currentCapacityEv
__ZN15IOPMPowerSource15setManufacturerEP8OSSymbol
__ZN15IOPMPowerSource16batteryInstalledEv
__ZN15IOPMPowerSource16setTimeRemainingEi
__ZN15IOPMPowerSource17externalConnectedEv
__ZN15IOPMPowerSource17setErrorConditionEP8OSSymbol
__ZN15IOPMPowerSource18setAtCriticalLevelEb
__ZN15IOPMPowerSource18setCurrentCapacityEj
__ZN15IOPMPowerSource19legacyIOBatteryInfoEv
__ZN15IOPMPowerSource19setBatteryInstalledEb
__ZN15IOPMPowerSource20setExternalConnectedEb
__ZN15IOPMPowerSource21externalChargeCapableEv
__ZN15IOPMPowerSource22setLegacyIOBatteryInfoEP12OSDictionary
__ZN15IOPMPowerSource24capacityPercentRemainingEv
__ZN15IOPMPowerSource24setExternalChargeCapableEb
__ZN15IOPMPowerSource4freeEv
__ZN15IOPMPowerSource4initEv
__ZN15IOPMPowerSource5modelEv
__ZN15IOPMPowerSource6serialEv
__ZN15IOPMPowerSource7voltageEv
__ZN15IOPMPowerSource8amperageEv
__ZN15IOPMPowerSource8locationEv
__ZN15IOPMPowerSource8setModelEP8OSSymbol
__ZN15IOPMPowerSource9MetaClassC1Ev
__ZN15IOPMPowerSource9MetaClassC2Ev
__ZN15IOPMPowerSource9metaClassE
__ZN15IOPMPowerSource9setSerialEP8OSSymbol
__ZN15IOPMPowerSourceC1EPK11OSMetaClass
__ZN15IOPMPowerSourceC1Ev
__ZN15IOPMPowerSourceC2EPK11OSMetaClass
__ZN15IOPMPowerSourceC2Ev
__ZN15IOPMPowerSourceD0Ev
__ZN15IOPMPowerSourceD2Ev
__ZN15IORegistryEntry10gMetaClassE
__ZN15IORegistryEntry10initializeEv
__ZN15IORegistryEntry10superClassE
__ZN15IORegistryEntry11dealiasPathEPPKcPK15IORegistryPlane
__ZN15IORegistryEntry11detachAboveEPK15IORegistryPlane
__ZN15IORegistryEntry11setLocationEPK8OSSymbolPK15IORegistryPlane
__ZN15IORegistryEntry11setLocationEPKcPK15IORegistryPlane
__ZN15IORegistryEntry11setPropertyEPK8OSStringP8OSObject
__ZN15IORegistryEntry11setPropertyEPK8OSSymbolP8OSObject
__ZN15IORegistryEntry11setPropertyEPKcP8OSObject
__ZN15IORegistryEntry11setPropertyEPKcPvj
__ZN15IORegistryEntry11setPropertyEPKcS1_
__ZN15IORegistryEntry11setPropertyEPKcb
__ZN15IORegistryEntry11setPropertyEPKcyj
__ZN15IORegistryEntry13attachToChildEPS_PK15IORegistryPlane
__ZN15IORegistryEntry13childFromPathEPKcPK15IORegistryPlanePcPi
__ZN15IORegistryEntry13setPropertiesEP8OSObject
__ZN15IORegistryEntry14attachToParentEPS_PK15IORegistryPlane
__ZN15IORegistryEntry14removePropertyEPK8OSString
__ZN15IORegistryEntry14removePropertyEPK8OSSymbol
__ZN15IORegistryEntry14removePropertyEPKc
__ZN15IORegistryEntry15detachFromChildEPS_PK15IORegistryPlane
__ZN15IORegistryEntry15getRegistryRootEv
__ZN15IORegistryEntry16detachFromParentEPS_PK15IORegistryPlane
__ZN15IORegistryEntry16setPropertyTableEP12OSDictionary
__ZN15IORegistryEntry17matchPathLocationEPKcPK15IORegistryPlane
__ZN15IORegistryEntry17runPropertyActionEPFiP8OSObjectPvS2_S2_S2_ES1_S2_S2_S2_S2_
__ZN15IORegistryEntry18getGenerationCountEv
__ZN15IORegistryEntry18getRegistryEntryIDEv
__ZN15IORegistryEntry21getChildFromComponentEPPKcPK15IORegistryPlane
__ZN15IORegistryEntry4freeEv
__ZN15IORegistryEntry4initEP12OSDictionary
__ZN15IORegistryEntry4initEPS_PK15IORegistryPlane
__ZN15IORegistryEntry7setNameEPK8OSSymbolPK15IORegistryPlane
__ZN15IORegistryEntry7setNameEPKcPK15IORegistryPlane
__ZN15IORegistryEntry8fromPathEPKcPK15IORegistryPlanePcPiPS_
__ZN15IORegistryEntry8getPlaneEPKc
__ZN15IORegistryEntry9MetaClassC1Ev
__ZN15IORegistryEntry9MetaClassC2Ev
__ZN15IORegistryEntry9detachAllEPK15IORegistryPlane
__ZN15IORegistryEntry9makePlaneEPKc
__ZN15IORegistryEntry9metaClassE
__ZN15IORegistryEntryC1EPK11OSMetaClass
__ZN15IORegistryEntryC1Ev
__ZN15IORegistryEntryC2EPK11OSMetaClass
__ZN15IORegistryEntryC2Ev
__ZN15IORegistryEntryD0Ev
__ZN15IORegistryEntryD2Ev
__ZN15IORegistryPlane10gMetaClassE
__ZN15IORegistryPlane10superClassE
__ZN15IORegistryPlane9MetaClassC1Ev
__ZN15IORegistryPlane9MetaClassC2Ev
__ZN15IORegistryPlane9metaClassE
__ZN15IORegistryPlaneC1EPK11OSMetaClass
__ZN15IORegistryPlaneC1Ev
__ZN15IORegistryPlaneC2EPK11OSMetaClass
__ZN15IORegistryPlaneC2Ev
__ZN15IORegistryPlaneD0Ev
__ZN15IORegistryPlaneD2Ev
__ZN16IODMAEventSource10gMetaClassE
__ZN16IODMAEventSource10superClassE
__ZN16IODMAEventSource12checkForWorkEv
__ZN16IODMAEventSource14stopDMACommandEby
__ZN16IODMAEventSource18completeDMACommandEP12IODMACommand
__ZN16IODMAEventSource9MetaClassC1Ev
__ZN16IODMAEventSource9MetaClassC2Ev
__ZN16IODMAEventSource9metaClassE
__ZN16IODMAEventSourceC1EPK11OSMetaClass
__ZN16IODMAEventSourceC1Ev
__ZN16IODMAEventSourceC2EPK11OSMetaClass
__ZN16IODMAEventSourceC2Ev
__ZN16IODMAEventSourceD0Ev
__ZN16IODMAEventSourceD2Ev
__ZN16IOPMinformeeList10gMetaClassE
__ZN16IOPMinformeeList10initializeEv
__ZN16IOPMinformeeList10nextInListEP12IOPMinformee
__ZN16IOPMinformeeList10superClassE
__ZN16IOPMinformeeList11firstInListEv
__ZN16IOPMinformeeList13numberOfItemsEv
__ZN16IOPMinformeeList14removeFromListEP9IOService
__ZN16IOPMinformeeList4freeEv
__ZN16IOPMinformeeList8findItemEP9IOService
__ZN16IOPMinformeeList9MetaClassC1Ev
__ZN16IOPMinformeeList9MetaClassC2Ev
__ZN16IOPMinformeeList9addToListEP12IOPMinformee
__ZN16IOPMinformeeList9metaClassE
__ZN16IOPMinformeeListC1EPK11OSMetaClass
__ZN16IOPMinformeeListC1Ev
__ZN16IOPMinformeeListC2EPK11OSMetaClass
__ZN16IOPMinformeeListC2Ev
__ZN16IOPMinformeeListD0Ev
__ZN16IOPMinformeeListD2Ev
__ZN16IORangeAllocator10gMetaClassE
__ZN16IORangeAllocator10superClassE
__ZN16IORangeAllocator12getFreeCountEv
__ZN16IORangeAllocator16getFragmentCountEv
__ZN16IORangeAllocator19getFragmentCapacityEv
__ZN16IORangeAllocator4freeEv
__ZN16IORangeAllocator9MetaClassC1Ev
__ZN16IORangeAllocator9MetaClassC2Ev
__ZN16IORangeAllocator9metaClassE
__ZN16IORangeAllocatorC1EPK11OSMetaClass
__ZN16IORangeAllocatorC1Ev
__ZN16IORangeAllocatorC2EPK11OSMetaClass
__ZN16IORangeAllocatorC2Ev
__ZN16IORangeAllocatorD0Ev
__ZN16IORangeAllocatorD2Ev
__ZN17IOBigMemoryCursor10gMetaClassE
__ZN17IOBigMemoryCursor10superClassE
__ZN17IOBigMemoryCursor9MetaClassC1Ev
__ZN17IOBigMemoryCursor9MetaClassC2Ev
__ZN17IOBigMemoryCursor9metaClassE
__ZN17IOBigMemoryCursorC1EPK11OSMetaClass
__ZN17IOBigMemoryCursorC1Ev
__ZN17IOBigMemoryCursorC2EPK11OSMetaClass
__ZN17IOBigMemoryCursorC2Ev
__ZN17IOBigMemoryCursorD0Ev
__ZN17IOBigMemoryCursorD2Ev
__ZN17IOPolledInterface10gMetaClassE
__ZN17IOPolledInterfaceC2EPK11OSMetaClass
__ZN17IOPolledInterfaceD2Ev
__ZN17IOPowerConnection10gMetaClassE
__ZN17IOPowerConnection10superClassE
__ZN17IOPowerConnection14getAwaitingAckEv
__ZN17IOPowerConnection14setAwaitingAckEb
__ZN17IOPowerConnection16parentKnowsStateEv
__ZN17IOPowerConnection19setParentKnowsStateEb
__ZN17IOPowerConnection21getDesiredDomainStateEv
__ZN17IOPowerConnection21setDesiredDomainStateEm
__ZN17IOPowerConnection22childHasRequestedPowerEv
__ZN17IOPowerConnection23getPreventIdleSleepFlagEv
__ZN17IOPowerConnection23parentCurrentPowerFlagsEv
__ZN17IOPowerConnection23setPreventIdleSleepFlagEm
__ZN17IOPowerConnection25getPreventSystemSleepFlagEv
__ZN17IOPowerConnection25setChildHasRequestedPowerEv
__ZN17IOPowerConnection25setPreventSystemSleepFlagEm
__ZN17IOPowerConnection26setParentCurrentPowerFlagsEm
__ZN17IOPowerConnection9MetaClassC1Ev
__ZN17IOPowerConnection9MetaClassC2Ev
__ZN17IOPowerConnection9metaClassE
__ZN17IOPowerConnectionC1EPK11OSMetaClass
__ZN17IOPowerConnectionC1Ev
__ZN17IOPowerConnectionC2EPK11OSMetaClass
__ZN17IOPowerConnectionC2Ev
__ZN17IOPowerConnectionD0Ev
__ZN17IOPowerConnectionD2Ev
__ZN17IOSharedDataQueue10gMetaClassE
__ZN17IOSharedDataQueue10superClassE
__ZN17IOSharedDataQueue19getMemoryDescriptorEv
__ZN17IOSharedDataQueue4freeEv
__ZN17IOSharedDataQueue4peekEv
__ZN17IOSharedDataQueue9MetaClassC1Ev
__ZN17IOSharedDataQueue9MetaClassC2Ev
__ZN17IOSharedDataQueue9metaClassE
__ZN17IOSharedDataQueueC1EPK11OSMetaClass
__ZN17IOSharedDataQueueC1Ev
__ZN17IOSharedDataQueueC2EPK11OSMetaClass
__ZN17IOSharedDataQueueC2Ev
__ZN17IOSharedDataQueueD0Ev
__ZN17IOSharedDataQueueD2Ev
__ZN18IOMemoryDescriptor10addMappingEP11IOMemoryMap
__ZN18IOMemoryDescriptor10gMetaClassE
__ZN18IOMemoryDescriptor10initializeEv
__ZN18IOMemoryDescriptor10superClassE
__ZN18IOMemoryDescriptor13removeMappingEP11IOMemoryMap
__ZN18IOMemoryDescriptor16getPreparationIDEv
__ZN18IOMemoryDescriptor18getPhysicalAddressEv
__ZN18IOMemoryDescriptor30withPersistentMemoryDescriptorEPS_
__ZN18IOMemoryDescriptor4freeEv
__ZN18IOMemoryDescriptor6getTagEv
__ZN18IOMemoryDescriptor8getFlagsEv
__ZN18IOMemoryDescriptor8redirectEP4taskb
__ZN18IOMemoryDescriptor9MetaClassC1Ev
__ZN18IOMemoryDescriptor9MetaClassC2Ev
__ZN18IOMemoryDescriptor9metaClassE
__ZN18IOMemoryDescriptorC2EPK11OSMetaClass
__ZN18IOMemoryDescriptorD2Ev
__ZN18IORegistryIterator10enterEntryEPK15IORegistryPlane
__ZN18IORegistryIterator10enterEntryEv
__ZN18IORegistryIterator10gMetaClassE
__ZN18IORegistryIterator10iterateAllEv
__ZN18IORegistryIterator10superClassE
__ZN18IORegistryIterator13getNextObjectEv
__ZN18IORegistryIterator15getCurrentEntryEv
__ZN18IORegistryIterator17getNextObjectFlatEv
__ZN18IORegistryIterator22getNextObjectRecursiveEv
__ZN18IORegistryIterator4freeEv
__ZN18IORegistryIterator5resetEv
__ZN18IORegistryIterator7isValidEv
__ZN18IORegistryIterator9MetaClassC1Ev
__ZN18IORegistryIterator9MetaClassC2Ev
__ZN18IORegistryIterator9exitEntryEv
__ZN18IORegistryIterator9metaClassE
__ZN18IORegistryIteratorC1EPK11OSMetaClass
__ZN18IORegistryIteratorC1Ev
__ZN18IORegistryIteratorC2EPK11OSMetaClass
__ZN18IORegistryIteratorC2Ev
__ZN18IORegistryIteratorD0Ev
__ZN18IORegistryIteratorD2Ev
__ZN18IOTimerEventSource10gMetaClassE
__ZN18IOTimerEventSource10superClassE
__ZN18IOTimerEventSource11setWorkLoopEP10IOWorkLoop
__ZN18IOTimerEventSource12checkForWorkEv
__ZN18IOTimerEventSource13cancelTimeoutEv
__ZN18IOTimerEventSource14setTimeoutFuncEv
__ZN18IOTimerEventSource16timerEventSourceEP8OSObjectPFvS1_PS_E
__ZN18IOTimerEventSource16timerEventSourceEjP8OSObjectPFvS1_PS_E
__ZN18IOTimerEventSource4freeEv
__ZN18IOTimerEventSource4initEP8OSObjectPFvS1_PS_E
__ZN18IOTimerEventSource4initEjP8OSObjectPFvS1_PS_E
__ZN18IOTimerEventSource6enableEv
__ZN18IOTimerEventSource7disableEv
__ZN18IOTimerEventSource7timeoutEPv
__ZN18IOTimerEventSource9MetaClassC1Ev
__ZN18IOTimerEventSource9MetaClassC2Ev
__ZN18IOTimerEventSource9metaClassE
__ZN18IOTimerEventSourceC1EPK11OSMetaClass
__ZN18IOTimerEventSourceC1Ev
__ZN18IOTimerEventSourceC2EPK11OSMetaClass
__ZN18IOTimerEventSourceC2Ev
__ZN18IOTimerEventSourceD0Ev
__ZN18IOTimerEventSourceD2Ev
__ZN18_IOServiceNotifier10gMetaClassE
__ZN18_IOServiceNotifier10superClassE
__ZN18_IOServiceNotifier4freeEv
__ZN18_IOServiceNotifier4waitEv
__ZN18_IOServiceNotifier6enableEb
__ZN18_IOServiceNotifier6removeEv
__ZN18_IOServiceNotifier7disableEv
__ZN18_IOServiceNotifier9MetaClassC1Ev
__ZN18_IOServiceNotifier9MetaClassC2Ev
__ZN18_IOServiceNotifier9metaClassE
__ZN18_IOServiceNotifierC1EPK11OSMetaClass
__ZN18_IOServiceNotifierC1Ev
__ZN18_IOServiceNotifierC2EPK11OSMetaClass
__ZN18_IOServiceNotifierC2Ev
__ZN18_IOServiceNotifierD0Ev
__ZN18_IOServiceNotifierD2Ev
__ZN19IOPMPowerSourceList10gMetaClassE
__ZN19IOPMPowerSourceList10initializeEv
__ZN19IOPMPowerSourceList10nextInListEP15IOPMPowerSource
__ZN19IOPMPowerSourceList10superClassE
__ZN19IOPMPowerSourceList11firstInListEv
__ZN19IOPMPowerSourceList13numberOfItemsEv
__ZN19IOPMPowerSourceList14removeFromListEP15IOPMPowerSource
__ZN19IOPMPowerSourceList4freeEv
__ZN19IOPMPowerSourceList9MetaClassC1Ev
__ZN19IOPMPowerSourceList9MetaClassC2Ev
__ZN19IOPMPowerSourceList9addToListEP15IOPMPowerSource
__ZN19IOPMPowerSourceList9metaClassE
__ZN19IOPMPowerSourceListC1EPK11OSMetaClass
__ZN19IOPMPowerSourceListC1Ev
__ZN19IOPMPowerSourceListC2EPK11OSMetaClass
__ZN19IOPMPowerSourceListC2Ev
__ZN19IOPMPowerSourceListD0Ev
__ZN19IOPMPowerSourceListD2Ev
__ZN20IOLittleMemoryCursor10gMetaClassE
__ZN20IOLittleMemoryCursor10superClassE
__ZN20IOLittleMemoryCursor9MetaClassC1Ev
__ZN20IOLittleMemoryCursor9MetaClassC2Ev
__ZN20IOLittleMemoryCursor9metaClassE
__ZN20IOLittleMemoryCursorC1EPK11OSMetaClass
__ZN20IOLittleMemoryCursorC1Ev
__ZN20IOLittleMemoryCursorC2EPK11OSMetaClass
__ZN20IOLittleMemoryCursorC2Ev
__ZN20IOLittleMemoryCursorD0Ev
__ZN20IOLittleMemoryCursorD2Ev
__ZN20RootDomainUserClient10gMetaClassE
__ZN20RootDomainUserClient10superClassE
__ZN20RootDomainUserClient11clientCloseEv
__ZN20RootDomainUserClient5startEP9IOService
__ZN20RootDomainUserClient9MetaClassC1Ev
__ZN20RootDomainUserClient9MetaClassC2Ev
__ZN20RootDomainUserClient9metaClassE
__ZN20RootDomainUserClientC1EPK11OSMetaClass
__ZN20RootDomainUserClientC1Ev
__ZN20RootDomainUserClientC2EPK11OSMetaClass
__ZN20RootDomainUserClientC2Ev
__ZN20RootDomainUserClientD0Ev
__ZN20RootDomainUserClientD2Ev
__ZN21IOInterruptController10gMetaClassE
__ZN21IOInterruptController10superClassE
__ZN21IOInterruptController14causeInterruptEP9IOServicei
__ZN21IOInterruptController15enableInterruptEP9IOServicei
__ZN21IOInterruptController15handleInterruptEPvP9IOServicei
__ZN21IOInterruptController16disableInterruptEP9IOServicei
__ZN21IOInterruptController16getInterruptTypeEP9IOServiceiPi
__ZN21IOInterruptController17registerInterruptEP9IOServiceiPvPFvS2_S2_S2_iES2_
__ZN21IOInterruptController19unregisterInterruptEP9IOServicei
__ZN21IOInterruptController26getInterruptHandlerAddressEv
__ZN21IOInterruptController26timeStampSpuriousInterruptEv
__ZN21IOInterruptController9MetaClassC1Ev
__ZN21IOInterruptController9MetaClassC2Ev
__ZN21IOInterruptController9metaClassE
__ZN21IOInterruptControllerC1EPK11OSMetaClass
__ZN21IOInterruptControllerC2EPK11OSMetaClass
__ZN21IOInterruptControllerD0Ev
__ZN21IOInterruptControllerD2Ev
__ZN21IONaturalMemoryCursor10gMetaClassE
__ZN21IONaturalMemoryCursor10superClassE
__ZN21IONaturalMemoryCursor9MetaClassC1Ev
__ZN21IONaturalMemoryCursor9MetaClassC2Ev
__ZN21IONaturalMemoryCursor9metaClassE
__ZN21IONaturalMemoryCursorC1EPK11OSMetaClass
__ZN21IONaturalMemoryCursorC1Ev
__ZN21IONaturalMemoryCursorC2EPK11OSMetaClass
__ZN21IONaturalMemoryCursorC2Ev
__ZN21IONaturalMemoryCursorD0Ev
__ZN21IONaturalMemoryCursorD2Ev
__ZN21IOSubMemoryDescriptor10gMetaClassE
__ZN21IOSubMemoryDescriptor10superClassE
__ZN21IOSubMemoryDescriptor16getPreparationIDEv
__ZN21IOSubMemoryDescriptor4freeEv
__ZN21IOSubMemoryDescriptor8redirectEP4taskb
__ZN21IOSubMemoryDescriptor9MetaClassC1Ev
__ZN21IOSubMemoryDescriptor9MetaClassC2Ev
__ZN21IOSubMemoryDescriptor9metaClassE
__ZN21IOSubMemoryDescriptorC1EPK11OSMetaClass
__ZN21IOSubMemoryDescriptorC1Ev
__ZN21IOSubMemoryDescriptorC2EPK11OSMetaClass
__ZN21IOSubMemoryDescriptorC2Ev
__ZN21IOSubMemoryDescriptorD0Ev
__ZN21IOSubMemoryDescriptorD2Ev
__ZN22IOInterruptEventSource10gMetaClassE
__ZN22IOInterruptEventSource10superClassE
__ZN22IOInterruptEventSource11setWorkLoopEP10IOWorkLoop
__ZN22IOInterruptEventSource12checkForWorkEv
__ZN22IOInterruptEventSource17interruptOccurredEPvP9IOServicei
__ZN22IOInterruptEventSource20interruptEventSourceEP8OSObjectPFvS1_PS_iEP9IOServicei
__ZN22IOInterruptEventSource23normalInterruptOccurredEPvP9IOServicei
__ZN22IOInterruptEventSource24disableInterruptOccurredEPvP9IOServicei
__ZN22IOInterruptEventSource4freeEv
__ZN22IOInterruptEventSource4initEP8OSObjectPFvS1_PS_iEP9IOServicei
__ZN22IOInterruptEventSource6enableEv
__ZN22IOInterruptEventSource7disableEv
__ZN22IOInterruptEventSource9MetaClassC1Ev
__ZN22IOInterruptEventSource9MetaClassC2Ev
__ZN22IOInterruptEventSource9metaClassE
__ZN22IOInterruptEventSourceC1EPK11OSMetaClass
__ZN22IOInterruptEventSourceC1Ev
__ZN22IOInterruptEventSourceC2EPK11OSMetaClass
__ZN22IOInterruptEventSourceC2Ev
__ZN22IOInterruptEventSourceD0Ev
__ZN22IOInterruptEventSourceD2Ev
__ZN22_IOOpenServiceIterator10gMetaClassE
__ZN22_IOOpenServiceIterator10superClassE
__ZN22_IOOpenServiceIterator13getNextObjectEv
__ZN22_IOOpenServiceIterator4freeEv
__ZN22_IOOpenServiceIterator5resetEv
__ZN22_IOOpenServiceIterator7isValidEv
__ZN22_IOOpenServiceIterator8iteratorEP10OSIteratorPK9IOServiceS4_
__ZN22_IOOpenServiceIterator9MetaClassC1Ev
__ZN22_IOOpenServiceIterator9MetaClassC2Ev
__ZN22_IOOpenServiceIterator9metaClassE
__ZN22_IOOpenServiceIteratorC1EPK11OSMetaClass
__ZN22_IOOpenServiceIteratorC1Ev
__ZN22_IOOpenServiceIteratorC2EPK11OSMetaClass
__ZN22_IOOpenServiceIteratorC2Ev
__ZN22_IOOpenServiceIteratorD0Ev
__ZN22_IOOpenServiceIteratorD2Ev
__ZN23IOMultiMemoryDescriptor10gMetaClassE
__ZN23IOMultiMemoryDescriptor10superClassE
__ZN23IOMultiMemoryDescriptor4freeEv
__ZN23IOMultiMemoryDescriptor9MetaClassC1Ev
__ZN23IOMultiMemoryDescriptor9MetaClassC2Ev
__ZN23IOMultiMemoryDescriptor9metaClassE
__ZN23IOMultiMemoryDescriptorC1EPK11OSMetaClass
__ZN23IOMultiMemoryDescriptorC1Ev
__ZN23IOMultiMemoryDescriptorC2EPK11OSMetaClass
__ZN23IOMultiMemoryDescriptorC2Ev
__ZN23IOMultiMemoryDescriptorD0Ev
__ZN23IOMultiMemoryDescriptorD2Ev
__ZN24IOBufferMemoryDescriptor10gMetaClassE
__ZN24IOBufferMemoryDescriptor10superClassE
__ZN24IOBufferMemoryDescriptor14getBytesNoCopyEv
__ZN24IOBufferMemoryDescriptor4freeEv
__ZN24IOBufferMemoryDescriptor9MetaClassC1Ev
__ZN24IOBufferMemoryDescriptor9MetaClassC2Ev
__ZN24IOBufferMemoryDescriptor9metaClassE
__ZN24IOBufferMemoryDescriptorC1EPK11OSMetaClass
__ZN24IOBufferMemoryDescriptorC1Ev
__ZN24IOBufferMemoryDescriptorC2EPK11OSMetaClass
__ZN24IOBufferMemoryDescriptorC2Ev
__ZN24IOBufferMemoryDescriptorD0Ev
__ZN24IOBufferMemoryDescriptorD2Ev
__ZN25IOGeneralMemoryDescriptor10gMetaClassE
__ZN25IOGeneralMemoryDescriptor10superClassE
__ZN25IOGeneralMemoryDescriptor16getPreparationIDEv
__ZN25IOGeneralMemoryDescriptor4freeEv
__ZN25IOGeneralMemoryDescriptor9MetaClassC1Ev
__ZN25IOGeneralMemoryDescriptor9MetaClassC2Ev
__ZN25IOGeneralMemoryDescriptor9metaClassE
__ZN25IOGeneralMemoryDescriptorC1EPK11OSMetaClass
__ZN25IOGeneralMemoryDescriptorC1Ev
__ZN25IOGeneralMemoryDescriptorC2EPK11OSMetaClass
__ZN25IOGeneralMemoryDescriptorC2Ev
__ZN25IOGeneralMemoryDescriptorD0Ev
__ZN25IOGeneralMemoryDescriptorD2Ev
__ZN26_IOServiceInterestNotifier10gMetaClassE
__ZN26_IOServiceInterestNotifier10superClassE
__ZN26_IOServiceInterestNotifier4freeEv
__ZN26_IOServiceInterestNotifier4waitEv
__ZN26_IOServiceInterestNotifier6enableEb
__ZN26_IOServiceInterestNotifier6removeEv
__ZN26_IOServiceInterestNotifier7disableEv
__ZN26_IOServiceInterestNotifier9MetaClassC1Ev
__ZN26_IOServiceInterestNotifier9MetaClassC2Ev
__ZN26_IOServiceInterestNotifier9metaClassE
__ZN26_IOServiceInterestNotifierC1EPK11OSMetaClass
__ZN26_IOServiceInterestNotifierC1Ev
__ZN26_IOServiceInterestNotifierC2EPK11OSMetaClass
__ZN26_IOServiceInterestNotifierC2Ev
__ZN26_IOServiceInterestNotifierD0Ev
__ZN26_IOServiceInterestNotifierD2Ev
__ZN27IOSharedInterruptController10gMetaClassE
__ZN27IOSharedInterruptController10superClassE
__ZN27IOSharedInterruptController15enableInterruptEP9IOServicei
__ZN27IOSharedInterruptController15handleInterruptEPvP9IOServicei
__ZN27IOSharedInterruptController16disableInterruptEP9IOServicei
__ZN27IOSharedInterruptController16getInterruptTypeEP9IOServiceiPi
__ZN27IOSharedInterruptController17registerInterruptEP9IOServiceiPvPFvS2_S2_S2_iES2_
__ZN27IOSharedInterruptController19unregisterInterruptEP9IOServicei
__ZN27IOSharedInterruptController23initInterruptControllerEP21IOInterruptControllerP6OSData
__ZN27IOSharedInterruptController26getInterruptHandlerAddressEv
__ZN27IOSharedInterruptController9MetaClassC1Ev
__ZN27IOSharedInterruptController9MetaClassC2Ev
__ZN27IOSharedInterruptController9metaClassE
__ZN27IOSharedInterruptControllerC1EPK11OSMetaClass
__ZN27IOSharedInterruptControllerC1Ev
__ZN27IOSharedInterruptControllerC2EPK11OSMetaClass
__ZN27IOSharedInterruptControllerC2Ev
__ZN27IOSharedInterruptControllerD0Ev
__ZN27IOSharedInterruptControllerD2Ev
__ZN28IOFilterInterruptEventSource10gMetaClassE
__ZN28IOFilterInterruptEventSource10superClassE
__ZN28IOFilterInterruptEventSource15signalInterruptEv
__ZN28IOFilterInterruptEventSource20interruptEventSourceEP8OSObjectPFvS1_P22IOInterruptEventSourceiEP9IOServicei
__ZN28IOFilterInterruptEventSource23normalInterruptOccurredEPvP9IOServicei
__ZN28IOFilterInterruptEventSource24disableInterruptOccurredEPvP9IOServicei
__ZN28IOFilterInterruptEventSource26filterInterruptEventSourceEP8OSObjectPFvS1_P22IOInterruptEventSourceiEPFbS1_PS_EP9IOServicei
__ZN28IOFilterInterruptEventSource4initEP8OSObjectPFvS1_P22IOInterruptEventSourceiEP9IOServicei
__ZN28IOFilterInterruptEventSource4initEP8OSObjectPFvS1_P22IOInterruptEventSourceiEPFbS1_PS_EP9IOServicei
__ZN28IOFilterInterruptEventSource9MetaClassC1Ev
__ZN28IOFilterInterruptEventSource9MetaClassC2Ev
__ZN28IOFilterInterruptEventSource9metaClassE
__ZN28IOFilterInterruptEventSourceC1EPK11OSMetaClass
__ZN28IOFilterInterruptEventSourceC1Ev
__ZN28IOFilterInterruptEventSourceC2EPK11OSMetaClass
__ZN28IOFilterInterruptEventSourceC2Ev
__ZN28IOFilterInterruptEventSourceD0Ev
__ZN28IOFilterInterruptEventSourceD2Ev
__ZN29IOInterleavedMemoryDescriptor10gMetaClassE
__ZN29IOInterleavedMemoryDescriptor10superClassE
__ZN29IOInterleavedMemoryDescriptor4freeEv
__ZN29IOInterleavedMemoryDescriptor9MetaClassC1Ev
__ZN29IOInterleavedMemoryDescriptor9MetaClassC2Ev
__ZN29IOInterleavedMemoryDescriptor9metaClassE
__ZN29IOInterleavedMemoryDescriptorC1EPK11OSMetaClass
__ZN29IOInterleavedMemoryDescriptorC1Ev
__ZN29IOInterleavedMemoryDescriptorC2EPK11OSMetaClass
__ZN29IOInterleavedMemoryDescriptorC2Ev
__ZN29IOInterleavedMemoryDescriptorD0Ev
__ZN29IOInterleavedMemoryDescriptorD2Ev
__ZN8IOMapper10gMetaClassE
__ZN8IOMapper10superClassE
__ZN8IOMapper17setMapperRequiredEb
__ZN8IOMapper19copyMapperForDeviceEP9IOService
__ZN8IOMapper28copyMapperForDeviceWithIndexEP9IOServicej
__ZN8IOMapper19waitForSystemMapperEv
__ZN8IOMapper4freeEv
__ZN8IOMapper5startEP9IOService
__ZN8IOMapper7gSystemE
__ZN8IOMapper9MetaClassC1Ev
__ZN8IOMapper9MetaClassC2Ev
__ZN8IOMapper9metaClassE
__ZN8IOMapperC2EPK11OSMetaClass
__ZN8IOMapperD2Ev
__ZN9IOCommand10gMetaClassE
__ZN9IOCommand10superClassE
__ZN9IOCommand4initEv
__ZN9IOCommand9MetaClassC1Ev
__ZN9IOCommand9MetaClassC2Ev
__ZN9IOCommand9metaClassE
__ZN9IOCommandC1EPK11OSMetaClass
__ZN9IOCommandC2EPK11OSMetaClass
__ZN9IOCommandD0Ev
__ZN9IOCommandD2Ev
__ZN9IOService10gMetaClassE
__ZN9IOService10initializeEv
__ZN9IOService10joinPMtreeEPS_
__ZN9IOService10makeUsableEv
__ZN9IOService10superClassE
__ZN9IOService11addLocationEP12OSDictionary
__ZN9IOService11getPlatformEv
__ZN9IOService11setPlatformEP16IOPlatformExpert
__ZN9IOService12getBusyStateEv
__ZN9IOService12getResourcesEv
__ZN9IOService12nameMatchingEPK8OSStringP12OSDictionary
__ZN9IOService12nameMatchingEPKcP12OSDictionary
__ZN9IOService12passiveMatchEP12OSDictionaryb
__ZN9IOService12tellChangeUpEm
__ZN9IOService13addPowerChildEPS_
__ZN9IOService13askChangeDownEm
__ZN9IOService13checkResourceEP8OSObject
__ZN9IOService13getPowerStateEv
__ZN9IOService13matchLocationEPS_
__ZN9IOService13setPowerStateEmPS_
__ZN9IOService14activityTickleEmm
__ZN9IOService14applyToClientsEPFvPS_PvES1_
__ZN9IOService14causeInterruptEi
__ZN9IOService14checkResourcesEv
__ZN9IOService14getServiceRootEv
__ZN9IOService14startCandidateEPS_
__ZN9IOService14tellChangeDownEm
__ZN9IOService14waitForServiceEP12OSDictionaryP13mach_timespec
__ZN9IOService15comparePropertyEP12OSDictionaryPK8OSString
__ZN9IOService15comparePropertyEP12OSDictionaryPKc
__ZN9IOService15enableInterruptEi
__ZN9IOService15errnoFromReturnEi
__ZN9IOService15getDeviceMemoryEv
__ZN9IOService15getPMRootDomainEv
__ZN9IOService15lookupInterruptEibPP21IOInterruptController
__ZN9IOService15powerChangeDoneEm
__ZN9IOService15probeCandidatesEP12OSOrderedSet
__ZN9IOService15publishResourceEPK8OSSymbolP8OSObject
__ZN9IOService15publishResourceEPKcP8OSObject
__ZN9IOService15serviceMatchingEPK8OSStringP12OSDictionary
__ZN9IOService15serviceMatchingEPKcP12OSDictionary
__ZN9IOService15setDeviceMemoryEP7OSArray
__ZN9IOService15setPMRootDomainEP14IOPMrootDomain
__ZN9IOService16allowPowerChangeEm
__ZN9IOService16applyToProvidersEPFvPS_PvES1_
__ZN9IOService16disableInterruptEi
__ZN9IOService16getCPUSnoopDelayEv
__ZN9IOService16getInterruptTypeEiPi
__ZN9IOService16propertyMatchingEPK8OSSymbolPK8OSObjectP12OSDictionary
__ZN9IOService16removePowerChildEP17IOPowerConnection
__ZN9IOService16resolveInterruptEPS_i
__ZN9IOService16resourceMatchingEPK8OSStringP12OSDictionary
__ZN9IOService16resourceMatchingEPKcP12OSDictionary
__ZN9IOService16stringFromReturnEi
__ZN9IOService16tellNoChangeDownEm
__ZN9IOService17addNeededResourceEPKc
__ZN9IOService17applyToInterestedEPK8OSSymbolPFvP8OSObjectPvES5_
__ZN9IOService17cancelPowerChangeEm
__ZN9IOService17catalogNewDriversEP12OSOrderedSet
__ZN9IOService17comparePropertiesEP12OSDictionaryP12OSCollection
__ZN9IOService17currentCapabilityEv
__ZN9IOService17getAggressivenessEmPm
__ZN9IOService17registerInterruptEiP8OSObjectPFvS1_PvPS_iES2_
__ZN9IOService17setAggressivenessEmm
__ZN9IOService18changePowerStateToEm
__ZN9IOService18getResourceServiceEv
__ZN9IOService18lockForArbitrationEb
__ZN9IOService18matchPropertyTableEP12OSDictionary
__ZN9IOService18setIdleTimerPeriodEm
__ZN9IOService19copyMatchingServiceEP12OSDictionary
__ZN9IOService19getMatchingServicesEP12OSDictionary
__ZN9IOService19powerOverrideOnPrivEv
__ZN9IOService19registerPowerDriverEPS_P14IOPMPowerStatem
__ZN9IOService19start_PM_idle_timerEv
__ZN9IOService19unregisterInterruptEi
__ZN9IOService20callPlatformFunctionEPK8OSSymbolbPvS3_S3_S3_
__ZN9IOService20callPlatformFunctionEPKcbPvS2_S2_S2_
__ZN9IOService20getDeviceMemoryCountEv
__ZN9IOService20powerOverrideOffPrivEv
__ZN9IOService20unlockForArbitrationEv
__ZN9IOService21getClientWithCategoryEPK8OSSymbol
__ZN9IOService21powerStateDidChangeToEmmPS_
__ZN9IOService21temporaryPowerClampOnEv
__ZN9IOService21unregisterAllInterestEv
__ZN9IOService22acknowledgePowerChangeEPS_
__ZN9IOService22changePowerStateToPrivEm
__ZN9IOService22copyClientWithCategoryEPK8OSSymbol
__ZN9IOService22powerStateWillChangeToEmmPS_
__ZN9IOService22waitForMatchingServiceEP12OSDictionaryy
__ZN9IOService23currentPowerConsumptionEv
__ZN9IOService23registryEntryIDMatchingEyP12OSDictionary
__ZN9IOService23requestPowerDomainStateEmP17IOPowerConnectionm
__ZN9IOService24acknowledgeSetPowerStateEv
__ZN9IOService24getDeviceMemoryWithIndexEj
__ZN9IOService24powerStateForDomainStateEm
__ZN9IOService24registerInterestedDriverEPS_
__ZN9IOService24requireMaxInterruptDelayEj
__ZN9IOService26deRegisterInterestedDriverEPS_
__ZN9IOService27maxCapabilityForDomainStateEm
__ZN9IOService31initialPowerStateForDomainStateEm
__ZN9IOService4freeEv
__ZN9IOService4initEP12OSDictionary
__ZN9IOService4initEP15IORegistryEntryPK15IORegistryPlane
__ZN9IOService4stopEPS_
__ZN9IOService5startEPS_
__ZN9IOService6PMinitEv
__ZN9IOService6PMstopEv
__ZN9IOService6attachEPS_
__ZN9IOService6detachEPS_
__ZN9IOService9MetaClassC1Ev
__ZN9IOService9MetaClassC2Ev
__ZN9IOService9metaClassE
__ZN9IOService9resourcesEv : __ZN9IOService18getResourceServiceEv
__ZN9IOService9waitQuietEP13mach_timespec
__ZN9IOService9waitQuietEy
__ZN9IOServiceC1EPK11OSMetaClass
__ZN9IOServiceC1Ev
__ZN9IOServiceC2EPK11OSMetaClass
__ZN9IOServiceC2Ev
__ZN9IOServiceD0Ev
__ZN9IOServiceD2Ev
__ZNK10IOMachPort12getMetaClassEv
__ZNK10IOMachPort9MetaClass5allocEv
__ZNK10IONotifier12getMetaClassEv
__ZNK10IONotifier9MetaClass5allocEv
__ZNK10IOWorkLoop12getMetaClassEv
__ZNK10IOWorkLoop19enableAllInterruptsEv
__ZNK10IOWorkLoop20disableAllInterruptsEv
__ZNK10IOWorkLoop21enableAllEventSourcesEv
__ZNK10IOWorkLoop22disableAllEventSourcesEv
__ZNK10IOWorkLoop6inGateEv
__ZNK10IOWorkLoop8onThreadEv
__ZNK10IOWorkLoop9MetaClass5allocEv
__ZNK10IOWorkLoop9getThreadEv
__ZNK11IOCatalogue12getMetaClassEv
__ZNK11IOCatalogue12unloadModuleEP8OSString
__ZNK11IOCatalogue14isModuleLoadedEP12OSDictionary
__ZNK11IOCatalogue14isModuleLoadedEP8OSString
__ZNK11IOCatalogue14isModuleLoadedEPKc
__ZNK11IOCatalogue18getGenerationCountEv
__ZNK11IOCatalogue9MetaClass5allocEv
__ZNK11IOCatalogue9serializeEP11OSSerialize
__ZNK11IODataQueue12getMetaClassEv
__ZNK11IODataQueue9MetaClass5allocEv
__ZNK11IOMemoryMap12getMetaClassEv
__ZNK11IOMemoryMap9MetaClass5allocEv
__ZNK11IOResources11getWorkLoopEv
__ZNK11IOResources12getMetaClassEv
__ZNK11IOResources9MetaClass5allocEv
__ZNK12IODMACommand12getMetaClassEv
__ZNK12IODMACommand19getMemoryDescriptorEv
__ZNK12IODMACommand9MetaClass5allocEv
__ZNK12IOPMinformee12getMetaClassEv
__ZNK12IOPMinformee9MetaClass5allocEv
__ZNK12IORootParent12getMetaClassEv
__ZNK12IORootParent9MetaClass5allocEv
__ZNK12IOUserClient12getMetaClassEv
__ZNK12IOUserClient9MetaClass5allocEv
__ZNK13IOCommandGate12getMetaClassEv
__ZNK13IOCommandGate9MetaClass5allocEv
__ZNK13IOCommandPool12getMetaClassEv
__ZNK13IOCommandPool9MetaClass5allocEv
__ZNK13IOEventSource11getWorkLoopEv
__ZNK13IOEventSource12getMetaClassEv
__ZNK13IOEventSource7getNextEv
__ZNK13IOEventSource8onThreadEv
__ZNK13IOEventSource9MetaClass5allocEv
__ZNK13IOEventSource9getActionEv
__ZNK13IOEventSource9isEnabledEv
__ZNK13_IOServiceJob12getMetaClassEv
__ZNK13_IOServiceJob9MetaClass5allocEv
__ZNK14IOMemoryCursor12getMetaClassEv
__ZNK14IOMemoryCursor9MetaClass5allocEv
__ZNK14IOPMrootDomain12getMetaClassEv
__ZNK14IOPMrootDomain9MetaClass5allocEv
__ZNK15IOConditionLock12getConditionEv
__ZNK15IOConditionLock12getMetaClassEv
__ZNK15IOConditionLock16getInterruptibleEv
__ZNK15IOConditionLock9MetaClass5allocEv
__ZNK15IODMAController12getMetaClassEv
__ZNK15IODMAController9MetaClass5allocEv
__ZNK15IOPMPowerSource12getMetaClassEv
__ZNK15IOPMPowerSource9MetaClass5allocEv
__ZNK15IORegistryEntry11compareNameEP8OSStringPS1_
__ZNK15IORegistryEntry11getLocationEPK15IORegistryPlane
__ZNK15IORegistryEntry11getPropertyEPK8OSString
__ZNK15IORegistryEntry11getPropertyEPK8OSSymbol
__ZNK15IORegistryEntry11getPropertyEPKc
__ZNK15IORegistryEntry12compareNamesEP8OSObjectPP8OSString
__ZNK15IORegistryEntry12copyLocationEPK15IORegistryPlane
__ZNK15IORegistryEntry12copyPropertyEPK8OSString
__ZNK15IORegistryEntry12copyPropertyEPK8OSSymbol
__ZNK15IORegistryEntry12copyPropertyEPKc
__ZNK15IORegistryEntry12getMetaClassEv
__ZNK15IORegistryEntry13getChildEntryEPK15IORegistryPlane
__ZNK15IORegistryEntry14applyToParentsEPFvPS_PvES1_PK15IORegistryPlane
__ZNK15IORegistryEntry14copyChildEntryEPK15IORegistryPlane
__ZNK15IORegistryEntry14getParentEntryEPK15IORegistryPlane
__ZNK15IORegistryEntry15applyToChildrenEPFvPS_PvES1_PK15IORegistryPlane
__ZNK15IORegistryEntry15copyParentEntryEPK15IORegistryPlane
__ZNK15IORegistryEntry16getChildIteratorEPK15IORegistryPlane
__ZNK15IORegistryEntry16getPathComponentEPcPiPK15IORegistryPlane
__ZNK15IORegistryEntry16getPropertyTableEv
__ZNK15IORegistryEntry17getParentIteratorEPK15IORegistryPlane
__ZNK15IORegistryEntry19serializePropertiesEP11OSSerialize
__ZNK15IORegistryEntry20getChildSetReferenceEPK15IORegistryPlane
__ZNK15IORegistryEntry21getParentSetReferenceEPK15IORegistryPlane
__ZNK15IORegistryEntry24dictionaryWithPropertiesEv
__ZNK15IORegistryEntry7getNameEPK15IORegistryPlane
__ZNK15IORegistryEntry7getPathEPcPiPK15IORegistryPlane
__ZNK15IORegistryEntry7inPlaneEPK15IORegistryPlane
__ZNK15IORegistryEntry7isChildEPS_PK15IORegistryPlaneb
__ZNK15IORegistryEntry8copyNameEPK15IORegistryPlane
__ZNK15IORegistryEntry8getDepthEPK15IORegistryPlane
__ZNK15IORegistryEntry8hasAliasEPK15IORegistryPlanePcPi
__ZNK15IORegistryEntry8isParentEPS_PK15IORegistryPlaneb
__ZNK15IORegistryEntry8makeLinkEPS_jPK15IORegistryPlane
__ZNK15IORegistryEntry9MetaClass5allocEv
__ZNK15IORegistryEntry9breakLinkEPS_jPK15IORegistryPlane
__ZNK15IORegistryPlane12getMetaClassEv
__ZNK15IORegistryPlane9MetaClass5allocEv
__ZNK15IORegistryPlane9serializeEP11OSSerialize
__ZNK16IODMAEventSource12getMetaClassEv
__ZNK16IODMAEventSource9MetaClass5allocEv
__ZNK16IOPMinformeeList12getMetaClassEv
__ZNK16IOPMinformeeList9MetaClass5allocEv
__ZNK16IORangeAllocator12getMetaClassEv
__ZNK16IORangeAllocator9MetaClass5allocEv
__ZNK16IORangeAllocator9serializeEP11OSSerialize
__ZNK17IOBigMemoryCursor12getMetaClassEv
__ZNK17IOBigMemoryCursor9MetaClass5allocEv
__ZNK17IOPowerConnection12getMetaClassEv
__ZNK17IOPowerConnection9MetaClass5allocEv
__ZNK17IOSharedDataQueue12getMetaClassEv
__ZNK17IOSharedDataQueue9MetaClass5allocEv
__ZNK18IOMemoryDescriptor12getDirectionEv
__ZNK18IOMemoryDescriptor12getMetaClassEv
__ZNK18IOMemoryDescriptor9MetaClass5allocEv
__ZNK18IOMemoryDescriptor9getLengthEv
__ZNK18IORegistryIterator12getMetaClassEv
__ZNK18IORegistryIterator9MetaClass5allocEv
__ZNK18IOTimerEventSource12getMetaClassEv
__ZNK18IOTimerEventSource9MetaClass5allocEv
__ZNK18IOUserNotification12getMetaClassEv
__ZNK18IOUserNotification9MetaClass5allocEv
__ZNK18_IOServiceNotifier12getMetaClassEv
__ZNK18_IOServiceNotifier9MetaClass5allocEv
__ZNK19IOPMPowerSourceList12getMetaClassEv
__ZNK19IOPMPowerSourceList9MetaClass5allocEv
__ZNK20IOLittleMemoryCursor12getMetaClassEv
__ZNK20IOLittleMemoryCursor9MetaClass5allocEv
__ZNK20RootDomainUserClient12getMetaClassEv
__ZNK20RootDomainUserClient9MetaClass5allocEv
__ZNK21IOInterruptController12getMetaClassEv
__ZNK21IOInterruptController9MetaClass5allocEv
__ZNK21IONaturalMemoryCursor12getMetaClassEv
__ZNK21IONaturalMemoryCursor9MetaClass5allocEv
__ZNK21IOSubMemoryDescriptor12getMetaClassEv
__ZNK21IOSubMemoryDescriptor9MetaClass5allocEv
__ZNK22IOInterruptEventSource11getIntIndexEv
__ZNK22IOInterruptEventSource11getProviderEv
__ZNK22IOInterruptEventSource12getMetaClassEv
__ZNK22IOInterruptEventSource14getAutoDisableEv
__ZNK22IOInterruptEventSource9MetaClass5allocEv
__ZNK22_IOOpenServiceIterator12getMetaClassEv
__ZNK22_IOOpenServiceIterator9MetaClass5allocEv
__ZNK23IOMultiMemoryDescriptor12getMetaClassEv
__ZNK23IOMultiMemoryDescriptor9MetaClass5allocEv
__ZNK24IOBufferMemoryDescriptor11getCapacityEv
__ZNK24IOBufferMemoryDescriptor12getMetaClassEv
__ZNK24IOBufferMemoryDescriptor9MetaClass5allocEv
__ZNK25IOGeneralMemoryDescriptor12getMetaClassEv
__ZNK25IOGeneralMemoryDescriptor9MetaClass5allocEv
__ZNK25IOGeneralMemoryDescriptor9serializeEP11OSSerialize
__ZNK26_IOServiceInterestNotifier12getMetaClassEv
__ZNK26_IOServiceInterestNotifier9MetaClass5allocEv
__ZNK27IOSharedInterruptController12getMetaClassEv
__ZNK27IOSharedInterruptController9MetaClass5allocEv
__ZNK28IOFilterInterruptEventSource12getMetaClassEv
__ZNK28IOFilterInterruptEventSource15getFilterActionEv
__ZNK28IOFilterInterruptEventSource9MetaClass5allocEv
__ZNK29IOInterleavedMemoryDescriptor12getMetaClassEv
__ZNK29IOInterleavedMemoryDescriptor9MetaClass5allocEv
__ZNK8IOMapper12getMetaClassEv
__ZNK8IOMapper9MetaClass5allocEv
__ZNK9IOCommand12getMetaClassEv
__ZNK9IOCommand9MetaClass5allocEv
__ZNK9IOService10isInactiveEv
__ZNK9IOService11getProviderEv
__ZNK9IOService11getWorkLoopEv
__ZNK9IOService12getMetaClassEv
__ZNK9IOService12handleIsOpenEPKS_
__ZNK9IOService17getClientIteratorEv
__ZNK9IOService19getProviderIteratorEv
__ZNK9IOService19serializePropertiesEP11OSSerialize
__ZNK9IOService21getOpenClientIteratorEv
__ZNK9IOService23getOpenProviderIteratorEv
__ZNK9IOService6isOpenEPKS_
__ZNK9IOService8getStateEv
__ZNK9IOService9MetaClass5allocEv
__ZNK9IOService9getClientEv
__ZTV10IOMachPort
__ZTV10IONotifier
__ZTV10IOWorkLoop
__ZTV11IOCatalogue
__ZTV11IODataQueue
__ZTV11IOMemoryMap
__ZTV11IOResources
__ZTV12IODMACommand
__ZTV12IOPMinformee
__ZTV12IORootParent
__ZTV12IOUserClient
__ZTV13IOCommandGate
__ZTV13IOCommandPool
__ZTV13IOEventSource
__ZTV13_IOServiceJob
__ZTV14IOMemoryCursor
__ZTV14IOPMrootDomain
__ZTV15IOConditionLock
__ZTV15IODMAController
__ZTV15IOPMPowerSource
__ZTV15IORegistryEntry
__ZTV15IORegistryPlane
__ZTV16IODMAEventSource
__ZTV16IOPMinformeeList
__ZTV16IORangeAllocator
__ZTV17IOBigMemoryCursor
__ZTV17IOPolledInterface
__ZTV17IOPowerConnection
__ZTV17IOSharedDataQueue
__ZTV18IOMemoryDescriptor
__ZTV18IORegistryIterator
__ZTV18IOTimerEventSource
__ZTV18IOUserNotification
__ZTV18_IOServiceNotifier
__ZTV19IOPMPowerSourceList
__ZTV20IOLittleMemoryCursor
__ZTV20RootDomainUserClient
__ZTV21IOInterruptController
__ZTV21IONaturalMemoryCursor
__ZTV21IOSubMemoryDescriptor
__ZTV22IOInterruptEventSource
__ZTV22_IOOpenServiceIterator
__ZTV23IOMultiMemoryDescriptor
__ZTV24IOBufferMemoryDescriptor
__ZTV25IOGeneralMemoryDescriptor
__ZTV26_IOServiceInterestNotifier
__ZTV27IOSharedInterruptController
__ZTV28IOFilterInterruptEventSource
__ZTV29IOInterleavedMemoryDescriptor
__ZTV8IOMapper
__ZTV9IOCommand
__ZTV9IOService
__ZTVN10IOMachPort9MetaClassE
__ZTVN10IONotifier9MetaClassE
__ZTVN10IOWorkLoop9MetaClassE
__ZTVN11IOCatalogue9MetaClassE
__ZTVN11IODataQueue9MetaClassE
__ZTVN11IOMemoryMap9MetaClassE
__ZTVN11IOResources9MetaClassE
__ZTVN12IODMACommand9MetaClassE
__ZTVN12IOPMinformee9MetaClassE
__ZTVN12IORootParent9MetaClassE
__ZTVN12IOUserClient9MetaClassE
__ZTVN13IOCommandGate9MetaClassE
__ZTVN13IOCommandPool9MetaClassE
__ZTVN13IOEventSource9MetaClassE
__ZTVN13_IOServiceJob9MetaClassE
__ZTVN14IOMemoryCursor9MetaClassE
__ZTVN14IOPMrootDomain9MetaClassE
__ZTVN15IOConditionLock9MetaClassE
__ZTVN15IODMAController9MetaClassE
__ZTVN15IOPMPowerSource9MetaClassE
__ZTVN15IORegistryEntry9MetaClassE
__ZTVN15IORegistryPlane9MetaClassE
__ZTVN16IODMAEventSource9MetaClassE
__ZTVN16IOPMinformeeList9MetaClassE
__ZTVN16IORangeAllocator9MetaClassE
__ZTVN17IOBigMemoryCursor9MetaClassE
__ZTVN17IOPowerConnection9MetaClassE
__ZTVN17IOSharedDataQueue9MetaClassE
__ZTVN18IOMemoryDescriptor9MetaClassE
__ZTVN18IORegistryIterator9MetaClassE
__ZTVN18IOTimerEventSource9MetaClassE
__ZTVN18IOUserNotification9MetaClassE
__ZTVN18_IOServiceNotifier9MetaClassE
__ZTVN19IOPMPowerSourceList9MetaClassE
__ZTVN20IOLittleMemoryCursor9MetaClassE
__ZTVN20RootDomainUserClient9MetaClassE
__ZTVN21IOInterruptController9MetaClassE
__ZTVN21IONaturalMemoryCursor9MetaClassE
__ZTVN21IOSubMemoryDescriptor9MetaClassE
__ZTVN22IOInterruptEventSource9MetaClassE
__ZTVN22_IOOpenServiceIterator9MetaClassE
__ZTVN23IOMultiMemoryDescriptor9MetaClassE
__ZTVN24IOBufferMemoryDescriptor9MetaClassE
__ZTVN25IOGeneralMemoryDescriptor9MetaClassE
__ZTVN26_IOServiceInterestNotifier9MetaClassE
__ZTVN27IOSharedInterruptController9MetaClassE
__ZTVN28IOFilterInterruptEventSource9MetaClassE
__ZTVN29IOInterleavedMemoryDescriptor9MetaClassE
__ZTVN8IOMapper9MetaClassE
__ZTVN9IOCommand9MetaClassE
__ZTVN9IOService9MetaClassE
__giDebugLogDataInternal
__giDebugLogInternal
__giDebugReserved1
__giDebugReserved2
_acknowledgeSleepWakeNotification
_db_dumpiojunk
_db_piokjunk
_debug_container_malloc_size
_debug_iomalloc_size
_debug_malloc_size
_device_close
_device_data_action
_di_root_image
_gIOAppPowerStateInterest
_gIOBusyInterest
_gIOCatalogue
_gIOClassKey
_gIOCommandPoolSizeKey
_gIODTAAPLInterruptsKey
_gIODTAddressCellKey
_gIODTCompatibleKey
_gIODTDefaultInterruptController
_gIODTInterruptCellKey
_gIODTInterruptParentKey
_gIODTModelKey
_gIODTNWInterruptMappingKey
_gIODTNameKey
_gIODTPHandleKey
_gIODTPlane
_gIODTRangeKey
_gIODTSizeCellKey
_gIODTTypeKey
_gIODTUnitKey
_gIODefaultMatchCategoryKey
_gIODeviceMemoryKey
_gIOFirstMatchNotification
_gIOFirstPublishNotification
_gIOGeneralInterest
_gIOInterruptControllersKey
_gIOInterruptSpecifiersKey
_gIOKernelConfigTables
_gIOKitDebug
_gIOKitDebugKey
_gIOLocationKey
_gIOLocationMatchKey
_gIOMatchCategoryKey
_gIOMatchedNotification
_gIOMatchedServiceCountKey
_gIOModuleIdentifierKey
_gIONameKey
_gIONameMatchKey
_gIONameMatchedKey
_gIOParentMatchKey
_gIOPathMatchKey
_gIOPlatformActiveActionKey
_gIOPlatformHaltRestartActionKey
_gIOPlatformPanicActionKey
_gIOPlatformQuiesceActionKey
_gIOPlatformSleepActionKey
_gIOPlatformWakeActionKey
_gIOPowerPlane
_gIOPriorityPowerStateInterest
_gIOProbeScoreKey
_gIOPropertyMatchKey
_gIOProviderClassKey
_gIOPublishNotification
_gIORangeAllocatorLock
_gIOResourceMatchKey
_gIOResourcesKey
_gIOServiceKey
_gIOServicePlane
_gIOTerminatedNotification
_gIOUserClientClassKey
_gIOWillTerminateNotification
_gPlatformInterruptControllerName
_registerPrioritySleepWakeInterest
_registerSleepWakeInterest
_vetoSleepWakeNotification


__ZN10IOReporter10addChannelEyPKc
__ZN10IOReporter10gMetaClassE
__ZN10IOReporter10legendWithEP7OSArrayS1_19IOReportChannelTypey
__ZN10IOReporter10superClassE
__ZN10IOReporter12createLegendEv
__ZN10IOReporter12lockReporterEv
__ZN10IOReporter12updateReportEP19IOReportChannelListjPvS2_
__ZN10IOReporter14copyChannelIDsEv
__ZN10IOReporter14unlockReporterEv
__ZN10IOReporter15configureReportEP19IOReportChannelListjPvS2_
__ZN10IOReporter15getChannelIndexEyPi
__ZN10IOReporter16getElementValuesEi
__ZN10IOReporter16setElementValuesEiP21IOReportElementValuesy
__ZN10IOReporter16updateAllReportsEP5OSSetP19IOReportChannelListjPvS4_
__ZN10IOReporter17copyElementValuesEiP21IOReportElementValues
__ZN10IOReporter17getChannelIndicesEyPiS0_
__ZN10IOReporter17handleSwapCleanupEi
__ZN10IOReporter17handleSwapPrepareEi
__ZN10IOReporter18handleCreateLegendEv
__ZN10IOReporter18handleUpdateReportEP19IOReportChannelListjPvS2_
__ZN10IOReporter18lockReporterConfigEv
__ZN10IOReporter19configureAllReportsEP5OSSetP19IOReportChannelListjPvS4_
__ZN10IOReporter19updateChannelValuesEi
__ZN10IOReporter19updateReportChannelEiPiP24IOBufferMemoryDescriptor
__ZN10IOReporter20getFirstElementIndexEyPi
__ZN10IOReporter20handleAddChannelSwapEyPK8OSSymbol
__ZN10IOReporter20unlockReporterConfigEv
__ZN10IOReporter21handleConfigureReportEP19IOReportChannelListjPvS2_
__ZN10IOReporter4freeEv
__ZN10IOReporter4initEP9IOService19IOReportChannelTypey
__ZN10IOReporter9MetaClassC1Ev
__ZN10IOReporter9MetaClassC2Ev
__ZN10IOReporter9metaClassE
__ZN10IOReporterC1EPK11OSMetaClass
__ZN10IOReporterC1Ev
__ZN10IOReporterC2EPK11OSMetaClass
__ZN10IOReporterC2Ev
__ZN10IOReporterD0Ev
__ZN10IOReporterD1Ev
__ZN10IOReporterD2Ev
__ZN14IOPMrootDomain12updateReportEP19IOReportChannelListjPvS2_
__ZN14IOPMrootDomain15configureReportEP19IOReportChannelListjPvS2_
__ZN14IOReportLegend10gMetaClassE
__ZN14IOReportLegend10superClassE
__ZN14IOReportLegend14addLegendEntryEP12OSDictionaryPKcS3_
__ZN14IOReportLegend14organizeLegendEP12OSDictionaryPK8OSSymbolS4_
__ZN14IOReportLegend17addReporterLegendEP10IOReporterPKcS3_
__ZN14IOReportLegend17addReporterLegendEP9IOServiceP10IOReporterPKcS5_
__ZN14IOReportLegend4freeEv
__ZN14IOReportLegend4withEP7OSArray
__ZN14IOReportLegend8initWithEP7OSArray
__ZN14IOReportLegend9MetaClassC1Ev
__ZN14IOReportLegend9MetaClassC2Ev
__ZN14IOReportLegend9getLegendEv
__ZN14IOReportLegend9metaClassE
__ZN14IOReportLegendC1EPK11OSMetaClass
__ZN14IOReportLegendC1Ev
__ZN14IOReportLegendC2EPK11OSMetaClass
__ZN14IOReportLegendC2Ev
__ZN14IOReportLegendD0Ev
__ZN14IOReportLegendD1Ev
__ZN14IOReportLegendD2Ev
__ZN15IOStateReporter10gMetaClassE
__ZN15IOStateReporter10setStateIDEyiy
__ZN15IOStateReporter10superClassE
__ZN15IOStateReporter14_getStateValueEyyNS_13valueSelectorE
__ZN15IOStateReporter15setChannelStateEyy
__ZN15IOStateReporter15setChannelStateEyyyy
__ZN15IOStateReporter16_getStateIndicesEyyPiS0_
__ZN15IOStateReporter16handleSetStateIDEyiy
__ZN15IOStateReporter17handleSwapCleanupEi
__ZN15IOStateReporter17handleSwapPrepareEi
__ZN15IOStateReporter17setStateByIndicesEii
__ZN15IOStateReporter17setStateByIndicesEiiyy
__ZN15IOStateReporter19updateChannelValuesEi
__ZN15IOStateReporter20handleAddChannelSwapEyPK8OSSymbol
__ZN15IOStateReporter20overrideChannelStateEyyyyy
__ZN15IOStateReporter21getStateInTransitionsEyy
__ZN15IOStateReporter21getStateResidencyTimeEyy
__ZN15IOStateReporter21incrementChannelStateEyyyyy
__ZN15IOStateReporter23handleSetStateByIndicesEiiyy
__ZN15IOStateReporter26getStateLastTransitionTimeEyy
__ZN15IOStateReporter29getStateLastChannelUpdateTimeEy
__ZN15IOStateReporter35handleOverrideChannelStateByIndicesEiiyyy
__ZN15IOStateReporter36handleIncrementChannelStateByIndicesEiiyyy
__ZN15IOStateReporter4freeEv
__ZN15IOStateReporter4withEP9IOServicetiy
__ZN15IOStateReporter8initWithEP9IOServicetsy
__ZN15IOStateReporter8setStateEy
__ZN15IOStateReporter8setStateEyyy
__ZN15IOStateReporter9MetaClassC1Ev
__ZN15IOStateReporter9MetaClassC2Ev
__ZN15IOStateReporter9metaClassE
__ZN15IOStateReporterC1EPK11OSMetaClass
__ZN15IOStateReporterC1Ev
__ZN15IOStateReporterC2EPK11OSMetaClass
__ZN15IOStateReporterC2Ev
__ZN15IOStateReporterD0Ev
__ZN15IOStateReporterD1Ev
__ZN15IOStateReporterD2Ev
__ZN16IOSimpleReporter10gMetaClassE
__ZN16IOSimpleReporter10superClassE
__ZN16IOSimpleReporter14incrementValueEyx
__ZN16IOSimpleReporter4withEP9IOServicety
__ZN16IOSimpleReporter8getValueEy
__ZN16IOSimpleReporter8initWithEP9IOServicety
__ZN16IOSimpleReporter8setValueEyx
__ZN16IOSimpleReporter9MetaClassC1Ev
__ZN16IOSimpleReporter9MetaClassC2Ev
__ZN16IOSimpleReporter9metaClassE
__ZN16IOSimpleReporterC1EPK11OSMetaClass
__ZN16IOSimpleReporterC1Ev
__ZN16IOSimpleReporterC2EPK11OSMetaClass
__ZN16IOSimpleReporterC2Ev
__ZN16IOSimpleReporterD0Ev
__ZN16IOSimpleReporterD1Ev
__ZN16IOSimpleReporterD2Ev
__ZN19IOHistogramReporter10gMetaClassE
__ZN19IOHistogramReporter10superClassE
__ZN19IOHistogramReporter10tallyValueEx
__ZN19IOHistogramReporter18handleCreateLegendEv
__ZN19IOHistogramReporter20overrideBucketValuesEjyxxx
__ZN19IOHistogramReporter4freeEv
__ZN19IOHistogramReporter4withEP9IOServicetyPKcyiP24IOHistogramSegmentConfig
__ZN19IOHistogramReporter8initWithEP9IOServicetyPK8OSSymbolyiP24IOHistogramSegmentConfig
__ZN19IOHistogramReporter9MetaClassC1Ev
__ZN19IOHistogramReporter9MetaClassC2Ev
__ZN19IOHistogramReporter9metaClassE
__ZN19IOHistogramReporterC1EPK11OSMetaClass
__ZN19IOHistogramReporterC1Ev
__ZN19IOHistogramReporterC2EPK11OSMetaClass
__ZN19IOHistogramReporterC2Ev
__ZN19IOHistogramReporterD0Ev
__ZN19IOHistogramReporterD1Ev
__ZN19IOHistogramReporterD2Ev
__ZN9IOService23updatePowerStatesReportEjPvS0_
__ZN9IOService23updateSimplePowerReportEjPvS0_
__ZN9IOService26configurePowerStatesReportEjPv
__ZN9IOService26configureSimplePowerReportEjPv
__ZNK10IOReporter12getMetaClassEv
__ZNK10IOReporter9MetaClass5allocEv
__ZNK14IOReportLegend12getMetaClassEv
__ZNK14IOReportLegend9MetaClass5allocEv
__ZNK15IOStateReporter12getMetaClassEv
__ZNK15IOStateReporter9MetaClass5allocEv
__ZNK16IOSimpleReporter12getMetaClassEv
__ZNK16IOSimpleReporter9MetaClass5allocEv
__ZNK19IOHistogramReporter12getMetaClassEv
__ZNK19IOHistogramReporter9MetaClass5allocEv
__ZTV10IOReporter
__ZTV14IOReportLegend
__ZTV15IOStateReporter
__ZTV16IOSimpleReporter
__ZTV19IOHistogramReporter
__ZTVN10IOReporter9MetaClassE
__ZTVN14IOReportLegend9MetaClassE
__ZTVN15IOStateReporter9MetaClassE
__ZTVN16IOSimpleReporter9MetaClassE
__ZTVN19IOHistogramReporter9MetaClassE
