__ZN10AppleMacIO9metaClassE
__ZN16AppleMacIODevice9metaClassE
__Z11IODBDMAStopPV23IODBDMAChannelRegisters
__Z12IODBDMAFlushPV23IODBDMAChannelRegisters
__Z12IODBDMAPausePV23IODBDMAChannelRegisters
__Z12IODBDMAResetPV23IODBDMAChannelRegisters
__Z12IODBDMAStartPV23IODBDMAChannelRegistersPV17IODBDMADescriptor
__Z15IODBDMAContinuePV23IODBDMAChannelRegisters
__ZN19IODBDMAMemoryCursor10gMetaClassE
__ZN19IODBDMAMemoryCursor10superClassE
__ZN19IODBDMAMemoryCursor17withSpecificationEmmm
__ZN19IODBDMAMemoryCursor21initWithSpecificationEmmm
__ZN19IODBDMAMemoryCursor9MetaClassC1Ev
__ZN19IODBDMAMemoryCursor9MetaClassC2Ev
__ZN19IODBDMAMemoryCursor9metaClassE
__ZN19IODBDMAMemoryCursorC1EPK11OSMetaClass
__ZN19IODBDMAMemoryCursorC1Ev
__ZN19IODBDMAMemoryCursorC2EPK11OSMetaClass
__ZN19IODBDMAMemoryCursorC2Ev
__ZN19IODBDMAMemoryCursorD0Ev
__ZN19IODBDMAMemoryCursorD2Ev
__ZN9IOService20_RESERVEDIOService48Ev
__ZN9IOService20_RESERVEDIOService49Ev
__ZN9IOService20_RESERVEDIOService50Ev
__ZN9IOService20_RESERVEDIOService51Ev
__ZN9IOService20_RESERVEDIOService52Ev
__ZN9IOService20_RESERVEDIOService53Ev
__ZN9IOService20_RESERVEDIOService54Ev
__ZN9IOService20_RESERVEDIOService55Ev
__ZN9IOService20_RESERVEDIOService56Ev
__ZN9IOService20_RESERVEDIOService57Ev
__ZN9IOService20_RESERVEDIOService58Ev
__ZN9IOService20_RESERVEDIOService59Ev
__ZN9IOService20_RESERVEDIOService60Ev
__ZN9IOService20_RESERVEDIOService61Ev
__ZN9IOService20_RESERVEDIOService62Ev
__ZN9IOService20_RESERVEDIOService63Ev
__ZNK19IODBDMAMemoryCursor12getMetaClassEv
__ZNK19IODBDMAMemoryCursor9MetaClass5allocEv
__ZTV19IODBDMAMemoryCursor
__ZTVN19IODBDMAMemoryCursor9MetaClassE
__ZN24IOBufferMemoryDescriptor20initWithPhysicalMaskEP4taskmyyy
__ZN24IOBufferMemoryDescriptor22inTaskWithPhysicalMaskEP4taskmyy
__ZN18IOMemoryDescriptor16withAddressRangeEyymP4task
__ZN18IOMemoryDescriptor19createMappingInTaskEP4taskymyy
__ZN12IOUserClient17mapClientMemory64EmP4taskmy
__ZN12IOUserClient19setAsyncReference64EPyP8ipc_portyy
