_IOLockSleep_darwin14
_IOLockSleepDeadline_darwin14
_IOLockWakeup_darwin14
_IOOFPathMatching
_IOSpinUnlock
_IOTrySpinLock
__Z16IODTFindSlotNameP15IORegistryEntryj
__Z16IODTSetResolvingP15IORegistryEntryPFijPjS1_EPFvS0_PhS4_S4_E
__Z17IODTGetCellCountsP15IORegistryEntryPjS1_
__Z22IODTResolveAddressCellP15IORegistryEntryPjPyS2_
__Z23IODTFindMatchingEntriesP15IORegistryEntryjPKc
__ZN10IOWorkLoop19workLoopWithOptionsEj
__ZN10IOWorkLoop20_RESERVEDIOWorkLoop0Ev
__ZN10IOWorkLoop20_RESERVEDIOWorkLoop1Ev
__ZN10IOWorkLoop20_RESERVEDIOWorkLoop2Ev
__ZN10IOWorkLoop20_RESERVEDIOWorkLoop3Ev
__ZN10IOWorkLoop20_RESERVEDIOWorkLoop4Ev
__ZN10IOWorkLoop20_RESERVEDIOWorkLoop5Ev
__ZN10IOWorkLoop20_RESERVEDIOWorkLoop6Ev
__ZN10IOWorkLoop20_RESERVEDIOWorkLoop7Ev
__ZN10IOWorkLoop9sleepGateEPvj
__ZN10IOWorkLoop9sleepGateEPvyj
__ZN11IOCatalogue11findDriversEP12OSDictionaryPi
__ZN11IOCatalogue11findDriversEP9IOServicePi
__ZN11IODataQueue11withEntriesEjj
__ZN11IODataQueue12withCapacityEj
__ZN11IODataQueue15initWithEntriesEjj
__ZN11IODataQueue16initWithCapacityEj
__ZN11IODataQueue7enqueueEPvj
__ZN11IOMemoryMap18getPhysicalSegmentEyPyj
__ZN11IOMemoryMap19setMemoryDescriptorEP18IOMemoryDescriptory
__ZN11IOMemoryMap21_RESERVEDIOMemoryMap0Ev
__ZN11IOMemoryMap21_RESERVEDIOMemoryMap1Ev
__ZN11IOMemoryMap21_RESERVEDIOMemoryMap2Ev
__ZN11IOMemoryMap21_RESERVEDIOMemoryMap3Ev
__ZN11IOMemoryMap21_RESERVEDIOMemoryMap4Ev
__ZN11IOMemoryMap21_RESERVEDIOMemoryMap5Ev
__ZN11IOMemoryMap21_RESERVEDIOMemoryMap6Ev
__ZN11IOMemoryMap21_RESERVEDIOMemoryMap7Ev
__ZN11IOMemoryMap8redirectEP18IOMemoryDescriptorjy
__ZN12IODMACommand11OutputBig32EPS_NS_9Segment64EPvj
__ZN12IODMACommand11OutputBig64EPS_NS_9Segment64EPvj
__ZN12IODMACommand11synchronizeEj
__ZN12IODMACommand12OutputHost32EPS_NS_9Segment64EPvj
__ZN12IODMACommand12OutputHost64EPS_NS_9Segment64EPvj
__ZN12IODMACommand14OutputLittle32EPS_NS_9Segment64EPvj
__ZN12IODMACommand14OutputLittle64EPS_NS_9Segment64EPvj
__ZN12IODMACommand15genIOVMSegmentsEPFbPS_NS_9Segment64EPvjEPyS2_Pj
__ZN12IODMACommand15genIOVMSegmentsEPyPvPj
__ZN12IODMACommand16createCopyBufferEjy
__ZN12IODMACommand17withSpecificationEPFbPS_NS_9Segment64EPvjEPKNS_14SegmentOptionsEjP8IOMapperS2_
__ZN12IODMACommand21initWithSpecificationEPFbPS_NS_9Segment64EPvjEPKNS_14SegmentOptionsEjP8IOMapperS2_
__ZN12IODMACommand24prepareWithSpecificationEPFbPS_NS_9Segment64EPvjEPKNS_14SegmentOptionsEjP8IOMapperyybb
__ZN12IODMACommand17withSpecificationEPFbPS_NS_9Segment64EPvjEhyNS_14MappingOptionsEyjP8IOMapperS2_
__ZN12IODMACommand21initWithSpecificationEPFbPS_NS_9Segment64EPvjEhyNS_14MappingOptionsEyjP8IOMapperS2_
__ZN12IODMACommand22_RESERVEDIODMACommand7Ev
__ZN12IODMACommand22_RESERVEDIODMACommand8Ev
__ZN12IODMACommand22_RESERVEDIODMACommand9Ev
__ZN12IODMACommand23_RESERVEDIODMACommand10Ev
__ZN12IODMACommand23_RESERVEDIODMACommand11Ev
__ZN12IODMACommand23_RESERVEDIODMACommand12Ev
__ZN12IODMACommand23_RESERVEDIODMACommand13Ev
__ZN12IODMACommand23_RESERVEDIODMACommand14Ev
__ZN12IODMACommand23_RESERVEDIODMACommand15Ev
__ZN12IODMACommand24prepareWithSpecificationEPFbPS_NS_9Segment64EPvjEhyNS_14MappingOptionsEyjP8IOMapperyybb
__ZN12IODMACommand8transferEjyPvy
__ZN12IOUserClient12initWithTaskEP4taskPvj
__ZN12IOUserClient12initWithTaskEP4taskPvjP12OSDictionary
__ZN12IOUserClient15sendAsyncResultEPjiPPvj
__ZN12IOUserClient17mapClientMemory64EjP4taskjy
__ZN12IOUserClient17sendAsyncResult64EPyiS0_j
__ZN12IOUserClient19clientMemoryForTypeEjPjPP18IOMemoryDescriptor
__ZN12IOUserClient19setAsyncReference64EPyP8ipc_portyy
__ZN12IOUserClient19setAsyncReference64EPyP8ipc_portyyP4task
__ZN12IOUserClient22_RESERVEDIOUserClient0Ev
__ZN12IOUserClient22_RESERVEDIOUserClient1Ev
__ZN12IOUserClient22_RESERVEDIOUserClient2Ev
__ZN12IOUserClient22_RESERVEDIOUserClient3Ev
__ZN12IOUserClient22_RESERVEDIOUserClient4Ev
__ZN12IOUserClient22_RESERVEDIOUserClient5Ev
__ZN12IOUserClient22_RESERVEDIOUserClient6Ev
__ZN12IOUserClient22_RESERVEDIOUserClient7Ev
__ZN12IOUserClient22_RESERVEDIOUserClient8Ev
__ZN12IOUserClient22_RESERVEDIOUserClient9Ev
__ZN12IOUserClient23_RESERVEDIOUserClient10Ev
__ZN12IOUserClient23_RESERVEDIOUserClient11Ev
__ZN12IOUserClient23_RESERVEDIOUserClient12Ev
__ZN12IOUserClient23_RESERVEDIOUserClient13Ev
__ZN12IOUserClient23_RESERVEDIOUserClient14Ev
__ZN12IOUserClient23_RESERVEDIOUserClient15Ev
__ZN12IOUserClient23getExternalTrapForIndexEj
__ZN12IOUserClient24getNotificationSemaphoreEjPP9semaphore
__ZN12IOUserClient24getTargetAndTrapForIndexEPP9IOServicej
__ZN12IOUserClient24registerNotificationPortEP8ipc_portjj
__ZN12IOUserClient24registerNotificationPortEP8ipc_portjy
__ZN12IOUserClient25getExternalMethodForIndexEj
__ZN12IOUserClient26getTargetAndMethodForIndexEPP9IOServicej
__ZN12IOUserClient28sendAsyncResult64WithOptionsEPyiS0_jj
__ZN12IOUserClient30getExternalAsyncMethodForIndexEj
__ZN12IOUserClient31getAsyncTargetAndMethodForIndexEPP9IOServicej
__ZN13IOCommandGate12commandSleepEPvj
__ZN13IOCommandGate12commandSleepEPvyj
__ZN13IOCommandGate23_RESERVEDIOCommandGate0Ev
__ZN13IOCommandGate23_RESERVEDIOCommandGate1Ev
__ZN13IOCommandGate23_RESERVEDIOCommandGate2Ev
__ZN13IOCommandGate23_RESERVEDIOCommandGate3Ev
__ZN13IOCommandGate23_RESERVEDIOCommandGate4Ev
__ZN13IOCommandGate23_RESERVEDIOCommandGate5Ev
__ZN13IOCommandGate23_RESERVEDIOCommandGate6Ev
__ZN13IOCommandGate23_RESERVEDIOCommandGate7Ev
__ZN13IOCommandPool11commandPoolEP9IOServiceP10IOWorkLoopj
__ZN13IOCommandPool23_RESERVEDIOCommandPool0Ev
__ZN13IOCommandPool23_RESERVEDIOCommandPool1Ev
__ZN13IOCommandPool23_RESERVEDIOCommandPool2Ev
__ZN13IOCommandPool23_RESERVEDIOCommandPool3Ev
__ZN13IOCommandPool23_RESERVEDIOCommandPool4Ev
__ZN13IOCommandPool23_RESERVEDIOCommandPool5Ev
__ZN13IOCommandPool23_RESERVEDIOCommandPool6Ev
__ZN13IOCommandPool23_RESERVEDIOCommandPool7Ev
__ZN13IOCommandPool4initEP9IOServiceP10IOWorkLoopj
__ZN13IOEventSource23_RESERVEDIOEventSource0Ev
__ZN13IOEventSource23_RESERVEDIOEventSource1Ev
__ZN13IOEventSource23_RESERVEDIOEventSource2Ev
__ZN13IOEventSource23_RESERVEDIOEventSource3Ev
__ZN13IOEventSource23_RESERVEDIOEventSource4Ev
__ZN13IOEventSource23_RESERVEDIOEventSource5Ev
__ZN13IOEventSource23_RESERVEDIOEventSource6Ev
__ZN13IOEventSource23_RESERVEDIOEventSource7Ev
__ZN13IOEventSource9sleepGateEPvj
__ZN13IOEventSource9sleepGateEPvyj
__ZN13_IOServiceJob8startJobEP9IOServiceij
__ZN14IODeviceMemory12withSubRangeEPS_yy
__ZN14IODeviceMemory13arrayFromListEPNS_11InitElementEj
__ZN14IODeviceMemory9withRangeEyy
__ZN14IOMemoryCursor17withSpecificationEPFvNS_15PhysicalSegmentEPvjEyyy
__ZN14IOMemoryCursor19genPhysicalSegmentsEP18IOMemoryDescriptoryPvjjPy
__ZN14IOMemoryCursor21initWithSpecificationEPFvNS_15PhysicalSegmentEPvjEyyy
__ZN14IOPMrootDomain17setSleepSupportedEj
__ZN14IOPMrootDomain19sysPowerDownHandlerEPvS0_jP9IOServiceS0_m
__ZN14IOPMrootDomain24receivePowerNotificationEj
__ZN14IOPMrootDomain27displayWranglerNotificationEPvS0_jP9IOServiceS0_m
__ZN15IODMAController13getControllerEP9IOServicej
__ZN15IODMAController16notifyDMACommandEP16IODMAEventSourceP12IODMACommandiyy
__ZN15IODMAController20createControllerNameEj
__ZN15IODMAController21registerDMAControllerEj
__ZN15IORegistryEntry25_RESERVEDIORegistryEntry0Ev
__ZN15IORegistryEntry25_RESERVEDIORegistryEntry1Ev
__ZN15IORegistryEntry25_RESERVEDIORegistryEntry2Ev
__ZN15IORegistryEntry25_RESERVEDIORegistryEntry3Ev
__ZN15IORegistryEntry25_RESERVEDIORegistryEntry4Ev
__ZN15IORegistryEntry25_RESERVEDIORegistryEntry5Ev
__ZN15IORegistryEntry25_RESERVEDIORegistryEntry6Ev
__ZN15IORegistryEntry25_RESERVEDIORegistryEntry7Ev
__ZN15IORegistryEntry25_RESERVEDIORegistryEntry8Ev
__ZN15IORegistryEntry25_RESERVEDIORegistryEntry9Ev
__ZN15IORegistryEntry26_RESERVEDIORegistryEntry10Ev
__ZN15IORegistryEntry26_RESERVEDIORegistryEntry11Ev
__ZN15IORegistryEntry26_RESERVEDIORegistryEntry12Ev
__ZN15IORegistryEntry26_RESERVEDIORegistryEntry13Ev
__ZN15IORegistryEntry26_RESERVEDIORegistryEntry14Ev
__ZN15IORegistryEntry26_RESERVEDIORegistryEntry15Ev
__ZN15IORegistryEntry26_RESERVEDIORegistryEntry16Ev
__ZN15IORegistryEntry26_RESERVEDIORegistryEntry17Ev
__ZN15IORegistryEntry26_RESERVEDIORegistryEntry18Ev
__ZN15IORegistryEntry26_RESERVEDIORegistryEntry19Ev
__ZN15IORegistryEntry26_RESERVEDIORegistryEntry20Ev
__ZN15IORegistryEntry26_RESERVEDIORegistryEntry21Ev
__ZN15IORegistryEntry26_RESERVEDIORegistryEntry22Ev
__ZN15IORegistryEntry26_RESERVEDIORegistryEntry23Ev
__ZN15IORegistryEntry26_RESERVEDIORegistryEntry24Ev
__ZN15IORegistryEntry26_RESERVEDIORegistryEntry25Ev
__ZN15IORegistryEntry26_RESERVEDIORegistryEntry26Ev
__ZN15IORegistryEntry26_RESERVEDIORegistryEntry27Ev
__ZN15IORegistryEntry26_RESERVEDIORegistryEntry28Ev
__ZN15IORegistryEntry26_RESERVEDIORegistryEntry29Ev
__ZN15IORegistryEntry26_RESERVEDIORegistryEntry30Ev
__ZN15IORegistryEntry26_RESERVEDIORegistryEntry31Ev
__ZN16IODMAEventSource14dmaEventSourceEP8OSObjectP9IOServicePFvS1_PS_P12IODMACommandiyyES8_j
__ZN16IODMAEventSource15startDMACommandEP12IODMACommandjyy
__ZN16IODMAEventSource16notifyDMACommandEP12IODMACommandiyy
__ZN16IODMAEventSource4initEP8OSObjectP9IOServicePFvS1_PS_P12IODMACommandiyyES8_j
__ZN16IORangeAllocator10deallocateEyy
__ZN16IORangeAllocator12allocElementEj
__ZN16IORangeAllocator13allocateRangeEyy
__ZN16IORangeAllocator14deallocElementEj
__ZN16IORangeAllocator28setFragmentCapacityIncrementEj
__ZN16IORangeAllocator4initEyyjj
__ZN16IORangeAllocator8allocateEyPyy
__ZN16IORangeAllocator9withRangeEyyjj
__ZN17IOBigMemoryCursor13outputSegmentEN14IOMemoryCursor15PhysicalSegmentEPvj
__ZN17IOBigMemoryCursor17withSpecificationEyyy
__ZN17IOBigMemoryCursor21initWithSpecificationEyyy
__ZN17IOPolledInterface27_RESERVEDIOPolledInterface1Ev
__ZN17IOPolledInterface27_RESERVEDIOPolledInterface2Ev
__ZN17IOPolledInterface27_RESERVEDIOPolledInterface3Ev
__ZN17IOPolledInterface27_RESERVEDIOPolledInterface4Ev
__ZN17IOPolledInterface27_RESERVEDIOPolledInterface5Ev
__ZN17IOPolledInterface27_RESERVEDIOPolledInterface6Ev
__ZN17IOPolledInterface27_RESERVEDIOPolledInterface7Ev
__ZN17IOPolledInterface27_RESERVEDIOPolledInterface8Ev
__ZN17IOPolledInterface27_RESERVEDIOPolledInterface9Ev
__ZN17IOPolledInterface28_RESERVEDIOPolledInterface10Ev
__ZN17IOPolledInterface28_RESERVEDIOPolledInterface11Ev
__ZN17IOPolledInterface28_RESERVEDIOPolledInterface12Ev
__ZN17IOPolledInterface28_RESERVEDIOPolledInterface13Ev
__ZN17IOPolledInterface28_RESERVEDIOPolledInterface14Ev
__ZN17IOPolledInterface28_RESERVEDIOPolledInterface15Ev
__ZN17IOSharedDataQueue11withEntriesEjj
__ZN17IOSharedDataQueue12getQueueSizeEv
__ZN17IOSharedDataQueue12setQueueSizeEj
__ZN17IOSharedDataQueue12withCapacityEj
__ZN17IOSharedDataQueue16initWithCapacityEj
__ZN17IOSharedDataQueue27_RESERVEDIOSharedDataQueue0Ev
__ZN17IOSharedDataQueue27_RESERVEDIOSharedDataQueue1Ev
__ZN17IOSharedDataQueue27_RESERVEDIOSharedDataQueue2Ev
__ZN17IOSharedDataQueue27_RESERVEDIOSharedDataQueue3Ev
__ZN17IOSharedDataQueue27_RESERVEDIOSharedDataQueue4Ev
__ZN17IOSharedDataQueue27_RESERVEDIOSharedDataQueue5Ev
__ZN17IOSharedDataQueue27_RESERVEDIOSharedDataQueue6Ev
__ZN17IOSharedDataQueue27_RESERVEDIOSharedDataQueue7Ev
__ZN17IOSharedDataQueue7dequeueEPvPj
__ZN17IOSharedDataQueue7enqueueEPvj
__ZN18IOMemoryDescriptor10setMappingEP4taskyj
__ZN18IOMemoryDescriptor10writeBytesEyPKvy
__ZN18IOMemoryDescriptor11makeMappingEPS_P4taskyjyy
__ZN18IOMemoryDescriptor11withAddressEPvyj
__ZN18IOMemoryDescriptor11withOptionsEPvjjP4taskjP8IOMapper
__ZN18IOMemoryDescriptor12setPurgeableEjPj
__ZN18IOMemoryDescriptor13getPageCountsEPyS0_
__ZN18IOMemoryDescriptor15initWithOptionsEPvjjP4taskjP8IOMapper
__ZN18IOMemoryDescriptor16performOperationEjyy
__ZN18IOMemoryDescriptor16withAddressRangeEyyjP4task
__ZN18IOMemoryDescriptor17withAddressRangesEP14IOVirtualRangejjP4task
__ZN18IOMemoryDescriptor19createMappingInTaskEP4taskyjyy
__ZN18IOMemoryDescriptor19withPhysicalAddressEyyj
__ZN18IOMemoryDescriptor28_RESERVEDIOMemoryDescriptor1Ev
__ZN18IOMemoryDescriptor28_RESERVEDIOMemoryDescriptor2Ev
__ZN18IOMemoryDescriptor28_RESERVEDIOMemoryDescriptor3Ev
__ZN18IOMemoryDescriptor28_RESERVEDIOMemoryDescriptor4Ev
__ZN18IOMemoryDescriptor28_RESERVEDIOMemoryDescriptor5Ev
__ZN18IOMemoryDescriptor28_RESERVEDIOMemoryDescriptor6Ev
__ZN18IOMemoryDescriptor28_RESERVEDIOMemoryDescriptor7Ev
__ZN18IOMemoryDescriptor28_RESERVEDIOMemoryDescriptor8Ev
__ZN18IOMemoryDescriptor28_RESERVEDIOMemoryDescriptor9Ev
__ZN18IOMemoryDescriptor29_RESERVEDIOMemoryDescriptor10Ev
__ZN18IOMemoryDescriptor29_RESERVEDIOMemoryDescriptor11Ev
__ZN18IOMemoryDescriptor29_RESERVEDIOMemoryDescriptor12Ev
__ZN18IOMemoryDescriptor29_RESERVEDIOMemoryDescriptor13Ev
__ZN18IOMemoryDescriptor29_RESERVEDIOMemoryDescriptor14Ev
__ZN18IOMemoryDescriptor29_RESERVEDIOMemoryDescriptor15Ev
__ZN18IOMemoryDescriptor3mapEj
__ZN18IOMemoryDescriptor5doMapEP7_vm_mapPyjyy
__ZN18IOMemoryDescriptor6setTagEj
__ZN18IOMemoryDescriptor7doUnmapEP7_vm_mapyy
__ZN18IOMemoryDescriptor9readBytesEyPvy
__ZN18IORegistryIterator11iterateOverEP15IORegistryEntryPK15IORegistryPlanej
__ZN18IORegistryIterator11iterateOverEPK15IORegistryPlanej
__ZN18IOTimerEventSource10setTimeoutEjj
__ZN18IOTimerEventSource10setTimeoutEjyy
__ZN18IOTimerEventSource10setTimeoutEy
__ZN18IOTimerEventSource10wakeAtTimeEjj
__ZN18IOTimerEventSource10wakeAtTimeEjyy
__ZN18IOTimerEventSource10wakeAtTimeEy
__ZN18IOTimerEventSource12setTimeoutMSEj
__ZN18IOTimerEventSource12setTimeoutUSEj
__ZN18IOTimerEventSource12wakeAtTimeMSEj
__ZN18IOTimerEventSource12wakeAtTimeUSEj
__ZN18IOTimerEventSource15setTimeoutTicksEj
__ZN18IOTimerEventSource15wakeAtTimeTicksEj
__ZN18IOTimerEventSource28_RESERVEDIOTimerEventSource3Ev
__ZN18IOTimerEventSource28_RESERVEDIOTimerEventSource4Ev
__ZN18IOTimerEventSource28_RESERVEDIOTimerEventSource5Ev
__ZN18IOTimerEventSource28_RESERVEDIOTimerEventSource6Ev
__ZN18IOTimerEventSource28_RESERVEDIOTimerEventSource7Ev
__ZN20IOLittleMemoryCursor13outputSegmentEN14IOMemoryCursor15PhysicalSegmentEPvj
__ZN20IOLittleMemoryCursor17withSpecificationEyyy
__ZN20IOLittleMemoryCursor21initWithSpecificationEyyy
__ZN20RootDomainUserClient15setPreventativeEjj
__ZN20RootDomainUserClient26getTargetAndMethodForIndexEPP9IOServicej
__ZN21IOInterruptController10initVectorEiP17IOInterruptVector
__ZN21IOInterruptController11causeVectorEiP17IOInterruptVector
__ZN21IOInterruptController12enableVectorEiP17IOInterruptVector
__ZN21IOInterruptController13getVectorTypeEiP17IOInterruptVector
__ZN21IOInterruptController17disableVectorHardEiP17IOInterruptVector
__ZN21IOInterruptController17vectorCanBeSharedEiP17IOInterruptVector
__ZN21IOInterruptController31_RESERVEDIOInterruptController0Ev
__ZN21IOInterruptController31_RESERVEDIOInterruptController1Ev
__ZN21IOInterruptController31_RESERVEDIOInterruptController2Ev
__ZN21IOInterruptController31_RESERVEDIOInterruptController3Ev
__ZN21IOInterruptController31_RESERVEDIOInterruptController4Ev
__ZN21IOInterruptController31_RESERVEDIOInterruptController5Ev
__ZN21IOInterruptController28timeStampInterruptHandlerEndEiP17IOInterruptVector
__ZN21IOInterruptController30timeStampInterruptHandlerStartEiP17IOInterruptVector
__ZN21IONaturalMemoryCursor13outputSegmentEN14IOMemoryCursor15PhysicalSegmentEPvj
__ZN21IONaturalMemoryCursor17withSpecificationEyyy
__ZN21IONaturalMemoryCursor21initWithSpecificationEyyy
__ZN21IOSubMemoryDescriptor11makeMappingEP18IOMemoryDescriptorP4taskyjyy
__ZN21IOSubMemoryDescriptor12initSubRangeEP18IOMemoryDescriptoryyj
__ZN21IOSubMemoryDescriptor12setPurgeableEjPj
__ZN21IOSubMemoryDescriptor12withSubRangeEP18IOMemoryDescriptoryyj
__ZN21IOSubMemoryDescriptor18getPhysicalSegmentEyPyj
__ZN21IOSubMemoryDescriptor7prepareEj
__ZN21IOSubMemoryDescriptor8completeEj
__ZN22IOInterruptEventSource32_RESERVEDIOInterruptEventSource0Ev
__ZN22IOInterruptEventSource32_RESERVEDIOInterruptEventSource1Ev
__ZN22IOInterruptEventSource32_RESERVEDIOInterruptEventSource2Ev
__ZN22IOInterruptEventSource32_RESERVEDIOInterruptEventSource3Ev
__ZN22IOInterruptEventSource32_RESERVEDIOInterruptEventSource4Ev
__ZN22IOInterruptEventSource32_RESERVEDIOInterruptEventSource5Ev
__ZN22IOInterruptEventSource32_RESERVEDIOInterruptEventSource6Ev
__ZN22IOInterruptEventSource32_RESERVEDIOInterruptEventSource7Ev
__ZN23IOMultiMemoryDescriptor15withDescriptorsEPP18IOMemoryDescriptorjjb
__ZN23IOMultiMemoryDescriptor19initWithDescriptorsEPP18IOMemoryDescriptorjjb
__ZN23IOMultiMemoryDescriptor7prepareEj
__ZN23IOMultiMemoryDescriptor8completeEj
__ZN24IOBufferMemoryDescriptor11appendBytesEPKvm
__ZN24IOBufferMemoryDescriptor11withOptionsEjmm
__ZN24IOBufferMemoryDescriptor12setDirectionEj
__ZN24IOBufferMemoryDescriptor12withCapacityEmjb
__ZN24IOBufferMemoryDescriptor14getBytesNoCopyEmm
__ZN24IOBufferMemoryDescriptor17inTaskWithOptionsEP4taskjmm
__ZN24IOBufferMemoryDescriptor20initWithPhysicalMaskEP4taskjyyy
__ZN24IOBufferMemoryDescriptor22inTaskWithPhysicalMaskEP4taskjyy
__ZN24IOBufferMemoryDescriptor34_RESERVEDIOBufferMemoryDescriptor0Ev
__ZN24IOBufferMemoryDescriptor34_RESERVEDIOBufferMemoryDescriptor1Ev
__ZN24IOBufferMemoryDescriptor34_RESERVEDIOBufferMemoryDescriptor2Ev
__ZN24IOBufferMemoryDescriptor34_RESERVEDIOBufferMemoryDescriptor3Ev
__ZN24IOBufferMemoryDescriptor34_RESERVEDIOBufferMemoryDescriptor4Ev
__ZN24IOBufferMemoryDescriptor34_RESERVEDIOBufferMemoryDescriptor5Ev
__ZN24IOBufferMemoryDescriptor34_RESERVEDIOBufferMemoryDescriptor6Ev
__ZN24IOBufferMemoryDescriptor34_RESERVEDIOBufferMemoryDescriptor7Ev
__ZN24IOBufferMemoryDescriptor34_RESERVEDIOBufferMemoryDescriptor8Ev
__ZN24IOBufferMemoryDescriptor34_RESERVEDIOBufferMemoryDescriptor9Ev
__ZN24IOBufferMemoryDescriptor35_RESERVEDIOBufferMemoryDescriptor10Ev
__ZN24IOBufferMemoryDescriptor35_RESERVEDIOBufferMemoryDescriptor11Ev
__ZN24IOBufferMemoryDescriptor35_RESERVEDIOBufferMemoryDescriptor12Ev
__ZN24IOBufferMemoryDescriptor35_RESERVEDIOBufferMemoryDescriptor13Ev
__ZN24IOBufferMemoryDescriptor35_RESERVEDIOBufferMemoryDescriptor14Ev
__ZN24IOBufferMemoryDescriptor35_RESERVEDIOBufferMemoryDescriptor15Ev
__ZN24IOBufferMemoryDescriptor9setLengthEm
__ZN24IOBufferMemoryDescriptor9withBytesEPKvmjb
__ZN25IOGeneralMemoryDescriptor11wireVirtualEj
__ZN25IOGeneralMemoryDescriptor12setPurgeableEjPj
__ZN25IOGeneralMemoryDescriptor15initWithOptionsEPvjjP4taskjP8IOMapper
__ZN25IOGeneralMemoryDescriptor18getPhysicalSegmentEyPyj
__ZN25IOGeneralMemoryDescriptor5doMapEP7_vm_mapPyjyy
__ZN25IOGeneralMemoryDescriptor7doUnmapEP7_vm_mapyy
__ZN25IOGeneralMemoryDescriptor7prepareEj
__ZN25IOGeneralMemoryDescriptor8completeEj
__ZN27IOSharedInterruptController37_RESERVEDIOSharedInterruptController0Ev
__ZN27IOSharedInterruptController37_RESERVEDIOSharedInterruptController1Ev
__ZN27IOSharedInterruptController37_RESERVEDIOSharedInterruptController2Ev
__ZN27IOSharedInterruptController37_RESERVEDIOSharedInterruptController3Ev
__ZN28IOFilterInterruptEventSource38_RESERVEDIOFilterInterruptEventSource0Ev
__ZN28IOFilterInterruptEventSource38_RESERVEDIOFilterInterruptEventSource1Ev
__ZN28IOFilterInterruptEventSource38_RESERVEDIOFilterInterruptEventSource2Ev
__ZN28IOFilterInterruptEventSource38_RESERVEDIOFilterInterruptEventSource3Ev
__ZN28IOFilterInterruptEventSource38_RESERVEDIOFilterInterruptEventSource4Ev
__ZN28IOFilterInterruptEventSource38_RESERVEDIOFilterInterruptEventSource5Ev
__ZN28IOFilterInterruptEventSource38_RESERVEDIOFilterInterruptEventSource6Ev
__ZN28IOFilterInterruptEventSource38_RESERVEDIOFilterInterruptEventSource7Ev
__ZN29IOInterleavedMemoryDescriptor12withCapacityEyj
__ZN29IOInterleavedMemoryDescriptor16initWithCapacityEyj
__ZN29IOInterleavedMemoryDescriptor19setMemoryDescriptorEP18IOMemoryDescriptoryy
__ZN29IOInterleavedMemoryDescriptor22clearMemoryDescriptorsEj
__ZN29IOInterleavedMemoryDescriptor7prepareEj
__ZN29IOInterleavedMemoryDescriptor8completeEj
__ZN8IOMapper18_RESERVEDIOMapper0Ev
__ZN8IOMapper18_RESERVEDIOMapper1Ev
__ZN8IOMapper18_RESERVEDIOMapper2Ev
__ZN8IOMapper18_RESERVEDIOMapper3Ev
__ZN8IOMapper18_RESERVEDIOMapper4Ev
__ZN8IOMapper18_RESERVEDIOMapper5Ev
__ZN8IOMapper18_RESERVEDIOMapper6Ev
__ZN8IOMapper18_RESERVEDIOMapper7Ev
__ZN8IOMapper18_RESERVEDIOMapper8Ev
__ZN8IOMapper18_RESERVEDIOMapper9Ev
__ZN8IOMapper19_RESERVEDIOMapper10Ev
__ZN8IOMapper19_RESERVEDIOMapper11Ev
__ZN8IOMapper19_RESERVEDIOMapper12Ev
__ZN8IOMapper19_RESERVEDIOMapper13Ev
__ZN8IOMapper19_RESERVEDIOMapper14Ev
__ZN8IOMapper19_RESERVEDIOMapper15Ev
__ZN8IOSyncer10gMetaClassE
__ZN8IOSyncer10superClassE
__ZN8IOSyncer13privateSignalEv
__ZN8IOSyncer4freeEv
__ZN8IOSyncer4initEb
__ZN8IOSyncer4waitEb
__ZN8IOSyncer6createEb
__ZN8IOSyncer6reinitEv
__ZN8IOSyncer6signalEib
__ZN8IOSyncer9MetaClassC1Ev
__ZN8IOSyncer9MetaClassC2Ev
__ZN8IOSyncer9metaClassE
__ZN8IOSyncerC1EPK11OSMetaClass
__ZN8IOSyncerC1Ev
__ZN8IOSyncerC2EPK11OSMetaClass
__ZN8IOSyncerC2Ev
__ZN8IOSyncerD0Ev
__ZN8IOSyncerD2Ev
__ZN9IOService10adjustBusyEi
__ZN9IOService10handleOpenEPS_jPv
__ZN9IOService11_adjustBusyEi
__ZN9IOService11handleCloseEPS_j
__ZN9IOService12didTerminateEPS_jPb
__ZN9IOService12requestProbeEj
__ZN9IOService12updateReportEP19IOReportChannelListjPvS2_
__ZN9IOService13messageClientEjP8OSObjectPvm
__ZN9IOService13newUserClientEP4taskPvjP12OSDictionaryPP12IOUserClient
__ZN9IOService13newUserClientEP4taskPvjPP12IOUserClient
__ZN9IOService13startMatchingEj
__ZN9IOService13waitMatchIdleEj
__ZN9IOService13willTerminateEPS_j
__ZN9IOService14doServiceMatchEj
__ZN9IOService14messageClientsEjPvm
__ZN9IOService15addNotificationEPK8OSSymbolP12OSDictionaryPFbPvS5_PS_ES5_S5_i
__ZN9IOService15configureReportEP19IOReportChannelListjPvS2_
__ZN9IOService15nextIdleTimeoutEyyj
__ZN9IOService15registerServiceEj
__ZN9IOService15terminateClientEPS_j
__ZN9IOService15terminatePhase1Ej
__ZN9IOService15terminateWorkerEj
__ZN9IOService16registerInterestEPK8OSSymbolPFiPvS3_jPS_S3_mES3_S3_
__ZN9IOService16requestTerminateEPS_j
__ZN9IOService16setCPUSnoopDelayEj
__ZN9IOService18doServiceTerminateEj
__ZN9IOService18matchPropertyTableEP12OSDictionaryPi
__ZN9IOService18requireMaxBusStallEj
__ZN9IOService18systemWillShutdownEj
__ZN9IOService19_RESERVEDIOService2Ev
__ZN9IOService19_RESERVEDIOService3Ev
__ZN9IOService19_RESERVEDIOService4Ev
__ZN9IOService19_RESERVEDIOService5Ev
__ZN9IOService19_RESERVEDIOService6Ev
__ZN9IOService19_RESERVEDIOService7Ev
__ZN9IOService19_RESERVEDIOService8Ev
__ZN9IOService19_RESERVEDIOService9Ev
__ZN9IOService19deliverNotificationEPK8OSSymboljj
__ZN9IOService20_RESERVEDIOService10Ev
__ZN9IOService20_RESERVEDIOService11Ev
__ZN9IOService20_RESERVEDIOService12Ev
__ZN9IOService20_RESERVEDIOService13Ev
__ZN9IOService20_RESERVEDIOService14Ev
__ZN9IOService20_RESERVEDIOService15Ev
__ZN9IOService20_RESERVEDIOService16Ev
__ZN9IOService20_RESERVEDIOService17Ev
__ZN9IOService20_RESERVEDIOService18Ev
__ZN9IOService20_RESERVEDIOService19Ev
__ZN9IOService20_RESERVEDIOService20Ev
__ZN9IOService20_RESERVEDIOService21Ev
__ZN9IOService20_RESERVEDIOService22Ev
__ZN9IOService20_RESERVEDIOService23Ev
__ZN9IOService20_RESERVEDIOService24Ev
__ZN9IOService20_RESERVEDIOService25Ev
__ZN9IOService20_RESERVEDIOService26Ev
__ZN9IOService20_RESERVEDIOService27Ev
__ZN9IOService20_RESERVEDIOService28Ev
__ZN9IOService20_RESERVEDIOService29Ev
__ZN9IOService20_RESERVEDIOService30Ev
__ZN9IOService20_RESERVEDIOService31Ev
__ZN9IOService20_RESERVEDIOService32Ev
__ZN9IOService20_RESERVEDIOService33Ev
__ZN9IOService20_RESERVEDIOService34Ev
__ZN9IOService20_RESERVEDIOService35Ev
__ZN9IOService20_RESERVEDIOService36Ev
__ZN9IOService20_RESERVEDIOService37Ev
__ZN9IOService20_RESERVEDIOService38Ev
__ZN9IOService20_RESERVEDIOService39Ev
__ZN9IOService20_RESERVEDIOService40Ev
__ZN9IOService20_RESERVEDIOService41Ev
__ZN9IOService20_RESERVEDIOService42Ev
__ZN9IOService20_RESERVEDIOService43Ev
__ZN9IOService20_RESERVEDIOService44Ev
__ZN9IOService20_RESERVEDIOService45Ev
__ZN9IOService20_RESERVEDIOService46Ev
__ZN9IOService20_RESERVEDIOService47Ev
__ZN9IOService23acknowledgeNotificationEPvj
__ZN9IOService23addMatchingNotificationEPK8OSSymbolP12OSDictionaryPFbPvS5_PS_P10IONotifierES5_S5_i
__ZN9IOService23scheduleTerminatePhase2Ej
__ZN9IOService24mapDeviceMemoryWithIndexEjj
__ZN9IOService4openEPS_jPv
__ZN9IOService5closeEPS_j
__ZN9IOService5probeEPS_Pi
__ZN9IOService7messageEjPS_Pv
__ZN9IOService8finalizeEj
__ZN9IOService9terminateEj
__ZNK15IORegistryEntry11getPropertyEPK8OSStringPK15IORegistryPlanej
__ZNK15IORegistryEntry11getPropertyEPK8OSSymbolPK15IORegistryPlanej
__ZNK15IORegistryEntry11getPropertyEPKcPK15IORegistryPlanej
__ZNK15IORegistryEntry12copyPropertyEPK8OSStringPK15IORegistryPlanej
__ZNK15IORegistryEntry12copyPropertyEPK8OSSymbolPK15IORegistryPlanej
__ZNK15IORegistryEntry12copyPropertyEPKcPK15IORegistryPlanej
__ZNK18IOMemoryDescriptor19dmaCommandOperationEjPvj
__ZNK25IOGeneralMemoryDescriptor19dmaCommandOperationEjPvj
__ZNK8IOSyncer12getMetaClassEv
__ZNK8IOSyncer9MetaClass5allocEv
__ZTV8IOSyncer
__ZTVN8IOSyncer9MetaClassE
_ev_try_lock
_ev_unlock
