_IOLockUnlock_darwin10:_lck_mtx_unlock_darwin10
_IOPanic
_PE_parse_boot_arg
__Z16IODTFindSlotNameP15IORegistryEntrym
__Z16IODTSetResolvingP15IORegistryEntryPFlmPmS1_EPFvS0_PhS4_S4_E
__Z17IODTGetCellCountsP15IORegistryEntryPmS1_
__Z22IODTResolveAddressCellP15IORegistryEntryPmS1_S1_
__Z23IODTFindMatchingEntriesP15IORegistryEntrymPKc
__ZN10IOWorkLoop19workLoopWithOptionsEm
__ZN10IOWorkLoop9sleepGateEPv12UnsignedWidem
__ZN10IOWorkLoop9sleepGateEPvm
__ZN11IOCatalogue11findDriversEP12OSDictionaryPl
__ZN11IOCatalogue11findDriversEP9IOServicePl
__ZN11IODataQueue11withEntriesEmm
__ZN11IODataQueue12withCapacityEm
__ZN11IODataQueue15initWithEntriesEmm
__ZN11IODataQueue16initWithCapacityEm
__ZN11IODataQueue7enqueueEPvm
__ZN11IOMemoryMap10getAddressEv
__ZN11IOMemoryMap18getPhysicalSegmentEmPm
__ZN11IOMemoryMap19setMemoryDescriptorEP18IOMemoryDescriptory
__ZN11IOMemoryMap7getSizeEv
__ZN11IOMemoryMap8redirectEP18IOMemoryDescriptormm
__ZN11IOMemoryMap8redirectEP18IOMemoryDescriptormy
__ZN12IODMACommand11OutputBig32EPS_NS_9Segment64EPvm
__ZN12IODMACommand11OutputBig64EPS_NS_9Segment64EPvm
__ZN12IODMACommand11synchronizeEm
__ZN12IODMACommand12OutputHost32EPS_NS_9Segment64EPvm
__ZN12IODMACommand12OutputHost64EPS_NS_9Segment64EPvm
__ZN12IODMACommand14OutputLittle32EPS_NS_9Segment64EPvm
__ZN12IODMACommand14OutputLittle64EPS_NS_9Segment64EPvm
__ZN12IODMACommand15genIOVMSegmentsEPFbPS_NS_9Segment64EPvmEPyS2_Pm
__ZN12IODMACommand15genIOVMSegmentsEPyPvPm
__ZN12IODMACommand17withSpecificationEPFbPS_NS_9Segment64EPvmEhyNS_14MappingOptionsEymP8IOMapperS2_
__ZN12IODMACommand21initWithSpecificationEPFbPS_NS_9Segment64EPvmEhyNS_14MappingOptionsEymP8IOMapperS2_
__ZN12IODMACommand24prepareWithSpecificationEPFbPS_NS_9Segment64EPvmEhyNS_14MappingOptionsEymP8IOMapperyybb
__ZN12IODMACommand8transferEmyPvy
__ZN12IOUserClient12initWithTaskEP4taskPvm
__ZN12IOUserClient12initWithTaskEP4taskPvmP12OSDictionary
__ZN12IOUserClient15mapClientMemoryEmP4taskmj
__ZN12IOUserClient15sendAsyncResultEPjiPPvm
__ZN12IOUserClient17mapClientMemory64EmP4taskmy
__ZN12IOUserClient17sendAsyncResult64EPyiS0_m
__ZN12IOUserClient19clientMemoryForTypeEmPmPP18IOMemoryDescriptor
__ZN12IOUserClient19setAsyncReference64EPyP8ipc_portyy
__ZN12IOUserClient23getExternalTrapForIndexEm
__ZN12IOUserClient24getNotificationSemaphoreEmPP9semaphore
__ZN12IOUserClient24getTargetAndTrapForIndexEPP9IOServicem
__ZN12IOUserClient24registerNotificationPortEP8ipc_portmm
__ZN12IOUserClient24registerNotificationPortEP8ipc_portmy
__ZN12IOUserClient25getExternalMethodForIndexEm
__ZN12IOUserClient26getTargetAndMethodForIndexEPP9IOServicem
__ZN12IOUserClient30getExternalAsyncMethodForIndexEm
__ZN12IOUserClient31getAsyncTargetAndMethodForIndexEPP9IOServicem
__ZN13IOCommandGate12commandSleepEPv12UnsignedWidem
__ZN13IOCommandGate12commandSleepEPvm
__ZN13IOCommandPool11commandPoolEP9IOServiceP10IOWorkLoopm
__ZN13IOCommandPool4initEP9IOServiceP10IOWorkLoopm
__ZN13IOEventSource9sleepGateEPv12UnsignedWidem
__ZN13IOEventSource9sleepGateEPvm
__ZN13_IOServiceJob8startJobEP9IOServiceim
__ZN14IOCommandQueue10gMetaClassE
__ZN14IOCommandQueue10superClassE
__ZN14IOCommandQueue12checkForWorkEv
__ZN14IOCommandQueue12commandQueueEP8OSObjectPFvS1_PvS2_S2_S2_Ei
__ZN14IOCommandQueue14enqueueCommandEbPvS0_S0_S0_
__ZN14IOCommandQueue15performAndFlushEP8OSObjectPFvS1_PvS2_S2_S2_E
__ZN14IOCommandQueue4freeEv
__ZN14IOCommandQueue4initEP8OSObjectPFvS1_PvS2_S2_S2_Ei
__ZN14IOCommandQueue9MetaClassC1Ev
__ZN14IOCommandQueue9MetaClassC2Ev
__ZN14IOCommandQueue9metaClassE
__ZN14IOCommandQueueC1EPK11OSMetaClass
__ZN14IOCommandQueueC1Ev
__ZN14IOCommandQueueC2EPK11OSMetaClass
__ZN14IOCommandQueueC2Ev
__ZN14IOCommandQueueD0Ev
__ZN14IOCommandQueueD2Ev
__ZN14IODeviceMemory12withSubRangeEPS_mm
__ZN14IODeviceMemory13arrayFromListEPNS_11InitElementEm
__ZN14IODeviceMemory9withRangeEmm
__ZN14IOMemoryCursor17withSpecificationEPFvNS_15PhysicalSegmentEPvmEmmm
__ZN14IOMemoryCursor19genPhysicalSegmentsEP18IOMemoryDescriptormPvmmPm
__ZN14IOMemoryCursor21initWithSpecificationEPFvNS_15PhysicalSegmentEPvmEmmm
__ZN14IOPMrootDomain17setSleepSupportedEm
__ZN14IOPMrootDomain19sysPowerDownHandlerEPvS0_mP9IOServiceS0_j
__ZN14IOPMrootDomain24receivePowerNotificationEm
__ZN14IOPMrootDomain27displayWranglerNotificationEPvS0_mP9IOServiceS0_j
__ZN15IODMAController13getControllerEP9IOServicem
__ZN15IODMAController16notifyDMACommandEP16IODMAEventSourceP12IODMACommandim
__ZN15IODMAController20createControllerNameEm
__ZN15IODMAController21registerDMAControllerEm
__ZN16IODMAEventSource14dmaEventSourceEP8OSObjectP9IOServicePFvS1_PS_P12IODMACommandimES8_m
__ZN16IODMAEventSource15startDMACommandEP12IODMACommand11IODirectionmm
__ZN16IODMAEventSource16notifyDMACommandEP12IODMACommandim
__ZN16IODMAEventSource4initEP8OSObjectP9IOServicePFvS1_PS_P12IODMACommandimES8_m
__ZN16IOKitDiagnostics12updateOffsetEP12OSDictionarymPKc
__ZN16IORangeAllocator10deallocateEmm
__ZN16IORangeAllocator12allocElementEm
__ZN16IORangeAllocator13allocateRangeEmm
__ZN16IORangeAllocator14deallocElementEm
__ZN16IORangeAllocator28setFragmentCapacityIncrementEm
__ZN16IORangeAllocator4initEmmmm
__ZN16IORangeAllocator8allocateEmPmm
__ZN16IORangeAllocator9withRangeEmmmm
__ZN17IOBigMemoryCursor13outputSegmentEN14IOMemoryCursor15PhysicalSegmentEPvm
__ZN17IOBigMemoryCursor17withSpecificationEmmm
__ZN17IOBigMemoryCursor21initWithSpecificationEmmm
__ZN17IOSharedDataQueue11withEntriesEmm
__ZN17IOSharedDataQueue12withCapacityEm
__ZN17IOSharedDataQueue16initWithCapacityEm
__ZN17IOSharedDataQueue7dequeueEPvPm
__ZN18IOMemoryDescriptor10setMappingEP4taskjm
__ZN18IOMemoryDescriptor10withRangesEP14IOVirtualRangem11IODirectionP4taskb
__ZN18IOMemoryDescriptor10writeBytesEmPKvm
__ZN18IOMemoryDescriptor11makeMappingEPS_P4taskjmmm
__ZN18IOMemoryDescriptor11withAddressEPvm11IODirection
__ZN18IOMemoryDescriptor11withAddressEjm11IODirectionP4task
__ZN18IOMemoryDescriptor11withOptionsEPvmmP4taskmP8IOMapper
__ZN18IOMemoryDescriptor12setPurgeableEmPm
__ZN18IOMemoryDescriptor12withSubRangeEPS_mm11IODirection
__ZN18IOMemoryDescriptor14initWithRangesEP14IOVirtualRangem11IODirectionP4taskb
__ZN18IOMemoryDescriptor15initWithAddressEPvm11IODirection
__ZN18IOMemoryDescriptor15initWithAddressEjm11IODirectionP4task
__ZN18IOMemoryDescriptor15initWithOptionsEPvmmP4taskmP8IOMapper
__ZN18IOMemoryDescriptor16getSourceSegmentEmPm
__ZN18IOMemoryDescriptor16performOperationEmmm
__ZN18IOMemoryDescriptor16withAddressRangeEyymP4task
__ZN18IOMemoryDescriptor17getVirtualSegmentEmPm
__ZN18IOMemoryDescriptor17withAddressRangesEP14IOAddressRangemmP4task
__ZN18IOMemoryDescriptor18getPhysicalSegmentEmPm
__ZN18IOMemoryDescriptor18getPhysicalSegmentEmPmm
__ZN18IOMemoryDescriptor18withPhysicalRangesEP15IOPhysicalRangem11IODirectionb
__ZN18IOMemoryDescriptor19createMappingInTaskEP4taskymyy
__ZN18IOMemoryDescriptor19withPhysicalAddressEmm11IODirection
__ZN18IOMemoryDescriptor20getPhysicalSegment64EmPm
__ZN18IOMemoryDescriptor22initWithPhysicalRangesEP15IOPhysicalRangem11IODirectionb
__ZN18IOMemoryDescriptor23initWithPhysicalAddressEmm11IODirection
__ZN18IOMemoryDescriptor28_RESERVEDIOMemoryDescriptor8Ev
__ZN18IOMemoryDescriptor28_RESERVEDIOMemoryDescriptor9Ev
__ZN18IOMemoryDescriptor29_RESERVEDIOMemoryDescriptor10Ev
__ZN18IOMemoryDescriptor29_RESERVEDIOMemoryDescriptor11Ev
__ZN18IOMemoryDescriptor29_RESERVEDIOMemoryDescriptor12Ev
__ZN18IOMemoryDescriptor29_RESERVEDIOMemoryDescriptor13Ev
__ZN18IOMemoryDescriptor29_RESERVEDIOMemoryDescriptor14Ev
__ZN18IOMemoryDescriptor29_RESERVEDIOMemoryDescriptor15Ev
__ZN18IOMemoryDescriptor3mapEP4taskjmmm
__ZN18IOMemoryDescriptor3mapEm
__ZN18IOMemoryDescriptor5doMapEP7_vm_mapPjmmm
__ZN18IOMemoryDescriptor6setTagEm
__ZN18IOMemoryDescriptor7doUnmapEP7_vm_mapjm
__ZN18IOMemoryDescriptor9readBytesEmPvm
__ZN18IORegistryIterator11iterateOverEP15IORegistryEntryPK15IORegistryPlanem
__ZN18IORegistryIterator11iterateOverEPK15IORegistryPlanem
__ZN18IOTimerEventSource10setTimeoutE12UnsignedWide
__ZN18IOTimerEventSource10setTimeoutE13mach_timespec
__ZN18IOTimerEventSource10setTimeoutEmm
__ZN18IOTimerEventSource10wakeAtTimeE12UnsignedWide
__ZN18IOTimerEventSource10wakeAtTimeE13mach_timespec
__ZN18IOTimerEventSource10wakeAtTimeEmm
__ZN18IOTimerEventSource12setTimeoutMSEm
__ZN18IOTimerEventSource12setTimeoutUSEm
__ZN18IOTimerEventSource12wakeAtTimeMSEm
__ZN18IOTimerEventSource12wakeAtTimeUSEm
__ZN18IOTimerEventSource15setTimeoutTicksEm
__ZN18IOTimerEventSource15wakeAtTimeTicksEm
__ZN20IOLittleMemoryCursor13outputSegmentEN14IOMemoryCursor15PhysicalSegmentEPvm
__ZN20IOLittleMemoryCursor17withSpecificationEmmm
__ZN20IOLittleMemoryCursor21initWithSpecificationEmmm
__ZN20RootDomainUserClient15setPreventativeEmm
__ZN20RootDomainUserClient26getTargetAndMethodForIndexEPP9IOServicem
__ZN21IOInterruptController10initVectorElP17IOInterruptVector
__ZN21IOInterruptController11causeVectorElP17IOInterruptVector
__ZN21IOInterruptController12enableVectorElP17IOInterruptVector
__ZN21IOInterruptController13getVectorTypeElP17IOInterruptVector
__ZN21IOInterruptController17disableVectorHardElP17IOInterruptVector
__ZN21IOInterruptController17vectorCanBeSharedElP17IOInterruptVector
__ZN21IONaturalMemoryCursor13outputSegmentEN14IOMemoryCursor15PhysicalSegmentEPvm
__ZN21IONaturalMemoryCursor17withSpecificationEmmm
__ZN21IONaturalMemoryCursor21initWithSpecificationEmmm
__ZN21IOSubMemoryDescriptor11makeMappingEP18IOMemoryDescriptorP4taskjmmm
__ZN21IOSubMemoryDescriptor12initSubRangeEP18IOMemoryDescriptormm11IODirection
__ZN21IOSubMemoryDescriptor12setPurgeableEmPm
__ZN21IOSubMemoryDescriptor12withSubRangeEP18IOMemoryDescriptormmm
__ZN21IOSubMemoryDescriptor18getPhysicalSegmentEmPmm
__ZN21IOSubMemoryDescriptor7prepareE11IODirection
__ZN21IOSubMemoryDescriptor8completeE11IODirection
__ZN23IOMultiMemoryDescriptor15withDescriptorsEPP18IOMemoryDescriptorm11IODirectionb
__ZN23IOMultiMemoryDescriptor18getPhysicalSegmentEmPmm
__ZN23IOMultiMemoryDescriptor19initWithDescriptorsEPP18IOMemoryDescriptorm11IODirectionb
__ZN23IOMultiMemoryDescriptor7prepareE11IODirection
__ZN23IOMultiMemoryDescriptor8completeE11IODirection
__ZN24IOBufferMemoryDescriptor11appendBytesEPKvj
__ZN24IOBufferMemoryDescriptor11withOptionsEmjj
__ZN24IOBufferMemoryDescriptor12setDirectionE11IODirection
__ZN24IOBufferMemoryDescriptor12withCapacityEj11IODirectionb
__ZN24IOBufferMemoryDescriptor13initWithBytesEPKvj11IODirectionb
__ZN24IOBufferMemoryDescriptor14getBytesNoCopyEjj
__ZN24IOBufferMemoryDescriptor15initWithOptionsEmjj
__ZN24IOBufferMemoryDescriptor15initWithOptionsEmjjP4task
__ZN24IOBufferMemoryDescriptor17inTaskWithOptionsEP4taskmjj
__ZN24IOBufferMemoryDescriptor20initWithPhysicalMaskEP4taskmyyy
__ZN24IOBufferMemoryDescriptor22inTaskWithPhysicalMaskEP4taskmyy
__ZN24IOBufferMemoryDescriptor34_RESERVEDIOBufferMemoryDescriptor2Ev
__ZN24IOBufferMemoryDescriptor34_RESERVEDIOBufferMemoryDescriptor3Ev
__ZN24IOBufferMemoryDescriptor34_RESERVEDIOBufferMemoryDescriptor4Ev
__ZN24IOBufferMemoryDescriptor34_RESERVEDIOBufferMemoryDescriptor5Ev
__ZN24IOBufferMemoryDescriptor34_RESERVEDIOBufferMemoryDescriptor6Ev
__ZN24IOBufferMemoryDescriptor34_RESERVEDIOBufferMemoryDescriptor7Ev
__ZN24IOBufferMemoryDescriptor34_RESERVEDIOBufferMemoryDescriptor8Ev
__ZN24IOBufferMemoryDescriptor34_RESERVEDIOBufferMemoryDescriptor9Ev
__ZN24IOBufferMemoryDescriptor35_RESERVEDIOBufferMemoryDescriptor10Ev
__ZN24IOBufferMemoryDescriptor35_RESERVEDIOBufferMemoryDescriptor11Ev
__ZN24IOBufferMemoryDescriptor35_RESERVEDIOBufferMemoryDescriptor12Ev
__ZN24IOBufferMemoryDescriptor35_RESERVEDIOBufferMemoryDescriptor13Ev
__ZN24IOBufferMemoryDescriptor35_RESERVEDIOBufferMemoryDescriptor14Ev
__ZN24IOBufferMemoryDescriptor35_RESERVEDIOBufferMemoryDescriptor15Ev
__ZN24IOBufferMemoryDescriptor9setLengthEj
__ZN24IOBufferMemoryDescriptor9withBytesEPKvj11IODirectionb
__ZN25IOGeneralMemoryDescriptor11setPositionEm
__ZN25IOGeneralMemoryDescriptor11wireVirtualE11IODirection
__ZN25IOGeneralMemoryDescriptor12setPurgeableEmPm
__ZN25IOGeneralMemoryDescriptor13mapIntoKernelEj
__ZN25IOGeneralMemoryDescriptor14initWithRangesEP14IOVirtualRangem11IODirectionP4taskb
__ZN25IOGeneralMemoryDescriptor15initWithAddressEPvm11IODirection
__ZN25IOGeneralMemoryDescriptor15initWithAddressEjm11IODirectionP4task
__ZN25IOGeneralMemoryDescriptor15initWithOptionsEPvmmP4taskmP8IOMapper
__ZN25IOGeneralMemoryDescriptor15unmapFromKernelEv
__ZN25IOGeneralMemoryDescriptor16getSourceSegmentEmPm
__ZN25IOGeneralMemoryDescriptor17getVirtualSegmentEmPm
__ZN25IOGeneralMemoryDescriptor18getPhysicalSegmentEmPm
__ZN25IOGeneralMemoryDescriptor18getPhysicalSegmentEmPmm
__ZN25IOGeneralMemoryDescriptor20getPhysicalSegment64EmPm
__ZN25IOGeneralMemoryDescriptor22initWithPhysicalRangesEP15IOPhysicalRangem11IODirectionb
__ZN25IOGeneralMemoryDescriptor23initWithPhysicalAddressEmm11IODirection
__ZN25IOGeneralMemoryDescriptor5doMapEP7_vm_mapPjmmm
__ZN25IOGeneralMemoryDescriptor7doUnmapEP7_vm_mapjm
__ZN25IOGeneralMemoryDescriptor7prepareE11IODirection
__ZN25IOGeneralMemoryDescriptor8completeE11IODirection
__ZN29IOInterleavedMemoryDescriptor12withCapacityEm11IODirection
__ZN29IOInterleavedMemoryDescriptor16initWithCapacityEm11IODirection
__ZN29IOInterleavedMemoryDescriptor18getPhysicalSegmentEmPmm
__ZN29IOInterleavedMemoryDescriptor19setMemoryDescriptorEP18IOMemoryDescriptormm
__ZN29IOInterleavedMemoryDescriptor22clearMemoryDescriptorsE11IODirection
__ZN29IOInterleavedMemoryDescriptor7prepareE11IODirection
__ZN29IOInterleavedMemoryDescriptor8completeE11IODirection
__ZN8IOMapper10allocTableEm
__ZN8IOMapper10iovmInsertEjmP13upl_page_infom
__ZN8IOMapper10iovmInsertEjmPjm
__ZN8IOMapper11NewARTTableEmPPvPj
__ZN8IOMapper12FreeARTTableEP6OSDatam
__ZN8IOMapper18iovmFreeDMACommandEP12IODMACommandjm
__ZN8IOMapper19iovmAllocDMACommandEP12IODMACommandm
__ZN8IOPMprot10gMetaClassE
__ZN8IOPMprot10superClassE
__ZN8IOPMprot9MetaClassC1Ev
__ZN8IOPMprot9MetaClassC2Ev
__ZN8IOPMprot9metaClassE
__ZN8IOPMprotC1EPK11OSMetaClass
__ZN8IOPMprotC1Ev
__ZN8IOPMprotC2EPK11OSMetaClass
__ZN8IOPMprotC2Ev
__ZN8IOPMprotD0Ev
__ZN8IOPMprotD2Ev
__ZN9IOService10adjustBusyEl
__ZN9IOService10handleOpenEPS_mPv
__ZN9IOService10systemWakeEv
__ZN9IOService10youAreRootEv
__ZN9IOService11_adjustBusyEl
__ZN9IOService11handleCloseEPS_m
__ZN9IOService11tellClientsEi
__ZN9IOService12clampPowerOnEm
__ZN9IOService12didTerminateEPS_mPb
__ZN9IOService12requestProbeEm
__ZN9IOService12waitForStateEmmP13mach_timespec
__ZN9IOService13getPMworkloopEv
__ZN9IOService13messageClientEmP8OSObjectPvj
__ZN9IOService13newUserClientEP4taskPvmP12OSDictionaryPP12IOUserClient
__ZN9IOService13newUserClientEP4taskPvmPP12IOUserClient
__ZN9IOService13startMatchingEm
__ZN9IOService13waitMatchIdleEm
__ZN9IOService13willTerminateEPS_m
__ZN9IOService14actionFinalizeEPS_m
__ZN9IOService14doServiceMatchEm
__ZN9IOService14messageClientsEmPvj
__ZN9IOService14newTemperatureElPS_
__ZN9IOService14setPowerParentEP17IOPowerConnectionbm
__ZN9IOService15addNotificationEPK8OSSymbolP12OSDictionaryPFbPvS5_PS_ES5_S5_l
__ZN9IOService15nextIdleTimeoutE12UnsignedWideS0_j
__ZN9IOService15registerServiceEm
__ZN9IOService15tellChangeDown1Em
__ZN9IOService15tellChangeDown2Em
__ZN9IOService15terminateClientEPS_m
__ZN9IOService15terminatePhase1Em
__ZN9IOService15terminateWorkerEm
__ZN9IOService16ack_timer_tickedEv
__ZN9IOService16command_receivedEPvS0_S0_S0_
__ZN9IOService16didYouWakeSystemEv
__ZN9IOService16registerInterestEPK8OSSymbolPFiPvS3_mPS_S3_jES3_S3_
__ZN9IOService16requestTerminateEPS_m
__ZN9IOService16setCPUSnoopDelayEm
__ZN9IOService18actionDidTerminateEPS_m
__ZN9IOService18doServiceTerminateEm
__ZN9IOService18matchPropertyTableEP12OSDictionaryPl
__ZN9IOService18requireMaxBusStallEm
__ZN9IOService18settleTimerExpiredEv
__ZN9IOService18systemWillShutdownEm
__ZN9IOService19actionWillTerminateEPS_mP7OSArray
__ZN9IOService19deliverNotificationEPK8OSSymbolmm
__ZN9IOService19installNotificationEPK8OSSymbolP12OSDictionaryPFbPvS5_PS_ES5_S5_lPP10OSIterator
__ZN9IOService22PM_Clamp_Timer_ExpiredEv
__ZN9IOService22powerDomainDidChangeToEmP17IOPowerConnection
__ZN9IOService23acknowledgeNotificationEPvm
__ZN9IOService23addMatchingNotificationEPK8OSSymbolP12OSDictionaryPFbPvS5_PS_P10IONotifierES5_S5_l
__ZN9IOService23powerDomainWillChangeToEmP17IOPowerConnection
__ZN9IOService23scheduleTerminatePhase2Em
__ZN9IOService23tellClientsWithResponseEi
__ZN9IOService24PM_idle_timer_expirationEv
__ZN9IOService24mapDeviceMemoryWithIndexEjm
__ZN9IOService26temperatureCriticalForZoneEPS_
__ZN9IOService27serializedAllowPowerChange2Em
__ZN9IOService28serializedCancelPowerChange2Em
__ZN9IOService4openEPS_mPv
__ZN9IOService5closeEPS_m
__ZN9IOService5probeEPS_Pl
__ZN9IOService6PMfreeEv
__ZN9IOService7messageEmPS_Pv
__ZN9IOService8finalizeEm
__ZN9IOService9terminateEm
__ZNK11IOCatalogue13serializeDataEmP11OSSerialize
__ZNK14IOCommandQueue12getMetaClassEv
__ZNK14IOCommandQueue9MetaClass5allocEv
__ZNK15IORegistryEntry11getPropertyEPK8OSStringPK15IORegistryPlanem
__ZNK15IORegistryEntry11getPropertyEPK8OSSymbolPK15IORegistryPlanem
__ZNK15IORegistryEntry11getPropertyEPKcPK15IORegistryPlanem
__ZNK15IORegistryEntry12copyPropertyEPK8OSStringPK15IORegistryPlanem
__ZNK15IORegistryEntry12copyPropertyEPK8OSSymbolPK15IORegistryPlanem
__ZNK15IORegistryEntry12copyPropertyEPKcPK15IORegistryPlanem
__ZNK18IOMemoryDescriptor19dmaCommandOperationEmPvj
__ZNK25IOGeneralMemoryDescriptor19dmaCommandOperationEmPvj
__ZNK8IOPMprot12getMetaClassEv
__ZNK8IOPMprot9MetaClass5allocEv
__ZTV14IOCommandQueue
__ZTV8IOPMprot
__ZTVN14IOCommandQueue9MetaClassE
__ZTVN8IOPMprot9MetaClassE
