_Assert
_OSAddAtomic
_OSAddAtomic16
_OSAddAtomic8
_OSBacktrace
_OSBitAndAtomic
_OSBitAndAtomic16
_OSBitAndAtomic8
_OSBitOrAtomic
_OSBitOrAtomic16
_OSBitOrAtomic8
_OSBitXorAtomic
_OSBitXorAtomic16
_OSBitXorAtomic8
_OSCompareAndSwap
_OSDecrementAtomic
_OSDecrementAtomic16
_OSDecrementAtomic8
_OSDequeueAtomic
_OSEnqueueAtomic
_OSFree
_OSIncrementAtomic
_OSIncrementAtomic16
_OSIncrementAtomic8
_OSMalloc
_OSMalloc_Tagalloc
_OSMalloc_Tagfree
_OSMalloc_noblock
_OSMalloc_nowait
_OSReportWithBacktrace
_OSRuntimeFinalizeCPP
_OSRuntimeInitializeCPP
_OSRuntimeUnloadCPP
_OSRuntimeUnloadCPPForSegment
_OSTestAndClear
_OSTestAndSet
_OSUnserializechar
_OSUnserializelval
_OSUnserializenerrs
_OSlibkernInit
__Z13OSUnserializePKcPP8OSString
__Z16OSUnserializeXMLPKcPP8OSString
__ZN10OSIterator10gMetaClassE
__ZN10OSIterator10superClassE
__ZN10OSIterator20_RESERVEDOSIterator0Ev
__ZN10OSIterator20_RESERVEDOSIterator1Ev
__ZN10OSIterator20_RESERVEDOSIterator2Ev
__ZN10OSIterator20_RESERVEDOSIterator3Ev
__ZN10OSIterator9MetaClassC1Ev
__ZN10OSIterator9MetaClassC2Ev
__ZN10OSIterator9metaClassE
__ZN10OSIteratorC1EPK11OSMetaClass
__ZN10OSIteratorC2EPK11OSMetaClass
__ZN10OSIteratorD0Ev
__ZN10OSIteratorD2Ev
__ZN11OSMetaClass10preModLoadEPKc
__ZN11OSMetaClass11postModLoadEPv
__ZN11OSMetaClass12checkModLoadEPv
__ZN11OSMetaClass14modHasInstanceEPKc
__ZN11OSMetaClass15considerUnloadsEv
__ZN11OSMetaClass18allocClassWithNameEPK8OSString
__ZN11OSMetaClass18allocClassWithNameEPK8OSSymbol
__ZN11OSMetaClass18allocClassWithNameEPKc
__ZN11OSMetaClass18getClassDictionaryEv
__ZN11OSMetaClass18reportModInstancesEPKc
__ZN11OSMetaClass19printInstanceCountsEv
__ZN11OSMetaClass20getMetaClassWithNameEPK8OSSymbol
__ZN11OSMetaClass21_RESERVEDOSMetaClass0Ev
__ZN11OSMetaClass21_RESERVEDOSMetaClass1Ev
__ZN11OSMetaClass21_RESERVEDOSMetaClass2Ev
__ZN11OSMetaClass21_RESERVEDOSMetaClass3Ev
__ZN11OSMetaClass21_RESERVEDOSMetaClass4Ev
__ZN11OSMetaClass21_RESERVEDOSMetaClass5Ev
__ZN11OSMetaClass21_RESERVEDOSMetaClass6Ev
__ZN11OSMetaClass21_RESERVEDOSMetaClass7Ev
__ZN11OSMetaClass21checkMetaCastWithNameEPK8OSStringPK15OSMetaClassBase
__ZN11OSMetaClass21checkMetaCastWithNameEPK8OSSymbolPK15OSMetaClassBase
__ZN11OSMetaClass21checkMetaCastWithNameEPKcPK15OSMetaClassBase
__ZN11OSMetaClass24serializeClassDictionaryEP12OSDictionary
__ZN11OSMetaClass8logErrorEi
__ZN11OSMetaClass9metaClassE
__ZN11OSMetaClassC1EPKcPKS_j
__ZN11OSMetaClassC2EPKcPKS_j
__ZN11OSMetaClassD0Ev
__ZN11OSMetaClassD2Ev
__ZN11OSMetaClassdlEPvm
__ZN11OSMetaClassnwEm
__ZN11OSSerialize10gMetaClassE
__ZN11OSSerialize10superClassE
__ZN11OSSerialize12addXMLEndTagEPKc
__ZN11OSSerialize12withCapacityEj
__ZN11OSSerialize14addXMLStartTagEPK15OSMetaClassBasePKc
__ZN11OSSerialize14ensureCapacityEj
__ZN11OSSerialize16initWithCapacityEj
__ZN11OSSerialize20previouslySerializedEPK15OSMetaClassBase
__ZN11OSSerialize20setCapacityIncrementEj
__ZN11OSSerialize21_RESERVEDOSSerialize0Ev
__ZN11OSSerialize21_RESERVEDOSSerialize1Ev
__ZN11OSSerialize21_RESERVEDOSSerialize2Ev
__ZN11OSSerialize21_RESERVEDOSSerialize3Ev
__ZN11OSSerialize21_RESERVEDOSSerialize4Ev
__ZN11OSSerialize21_RESERVEDOSSerialize5Ev
__ZN11OSSerialize21_RESERVEDOSSerialize6Ev
__ZN11OSSerialize21_RESERVEDOSSerialize7Ev
__ZN11OSSerialize4freeEv
__ZN11OSSerialize7addCharEc
__ZN11OSSerialize9MetaClassC1Ev
__ZN11OSSerialize9MetaClassC2Ev
__ZN11OSSerialize9addStringEPKc
__ZN11OSSerialize9clearTextEv
__ZN11OSSerialize9metaClassE
__ZN11OSSerializeC1EPK11OSMetaClass
__ZN11OSSerializeC1Ev
__ZN11OSSerializeC2EPK11OSMetaClass
__ZN11OSSerializeC2Ev
__ZN11OSSerializeD0Ev
__ZN11OSSerializeD2Ev
__ZN12OSCollection10gMetaClassE
__ZN12OSCollection10setOptionsEjjPv
__ZN12OSCollection10superClassE
__ZN12OSCollection11haveUpdatedEv
__ZN12OSCollection14copyCollectionEP12OSDictionary
__ZN12OSCollection22_RESERVEDOSCollection2Ev
__ZN12OSCollection22_RESERVEDOSCollection3Ev
__ZN12OSCollection22_RESERVEDOSCollection4Ev
__ZN12OSCollection22_RESERVEDOSCollection5Ev
__ZN12OSCollection22_RESERVEDOSCollection6Ev
__ZN12OSCollection22_RESERVEDOSCollection7Ev
__ZN12OSCollection4initEv
__ZN12OSCollection9MetaClassC1Ev
__ZN12OSCollection9MetaClassC2Ev
__ZN12OSCollection9metaClassE
__ZN12OSCollectionC1EPK11OSMetaClass
__ZN12OSCollectionC2EPK11OSMetaClass
__ZN12OSCollectionD0Ev
__ZN12OSCollectionD2Ev
__ZN12OSDictionary10gMetaClassE
__ZN12OSDictionary10setOptionsEjjPv
__ZN12OSDictionary10superClassE
__ZN12OSDictionary11withObjectsEPPK8OSObjectPPK8OSStringjj
__ZN12OSDictionary11withObjectsEPPK8OSObjectPPK8OSSymboljj
__ZN12OSDictionary12removeObjectEPK8OSString
__ZN12OSDictionary12removeObjectEPK8OSSymbol
__ZN12OSDictionary12removeObjectEPKc
__ZN12OSDictionary12withCapacityEj
__ZN12OSDictionary14copyCollectionEPS_
__ZN12OSDictionary14ensureCapacityEj
__ZN12OSDictionary14withDictionaryEPKS_j
__ZN12OSDictionary15flushCollectionEv
__ZN12OSDictionary15initWithObjectsEPPK8OSObjectPPK8OSStringjj
__ZN12OSDictionary15initWithObjectsEPPK8OSObjectPPK8OSSymboljj
__ZN12OSDictionary16initWithCapacityEj
__ZN12OSDictionary18initWithDictionaryEPKS_j
__ZN12OSDictionary20setCapacityIncrementEj
__ZN12OSDictionary22_RESERVEDOSDictionary0Ev
__ZN12OSDictionary22_RESERVEDOSDictionary1Ev
__ZN12OSDictionary22_RESERVEDOSDictionary2Ev
__ZN12OSDictionary22_RESERVEDOSDictionary3Ev
__ZN12OSDictionary22_RESERVEDOSDictionary4Ev
__ZN12OSDictionary22_RESERVEDOSDictionary5Ev
__ZN12OSDictionary22_RESERVEDOSDictionary6Ev
__ZN12OSDictionary22_RESERVEDOSDictionary7Ev
__ZN12OSDictionary4freeEv
__ZN12OSDictionary5mergeEPKS_
__ZN12OSDictionary9MetaClassC1Ev
__ZN12OSDictionary9MetaClassC2Ev
__ZN12OSDictionary9metaClassE
__ZN12OSDictionary9setObjectEPK8OSStringPK15OSMetaClassBase
__ZN12OSDictionary9setObjectEPK8OSSymbolPK15OSMetaClassBase
__ZN12OSDictionary9setObjectEPKcPK15OSMetaClassBase
__ZN12OSDictionaryC1EPK11OSMetaClass
__ZN12OSDictionaryC1Ev
__ZN12OSDictionaryC2EPK11OSMetaClass
__ZN12OSDictionaryC2Ev
__ZN12OSDictionaryD0Ev
__ZN12OSDictionaryD2Ev
__ZN12OSOrderedSet10gMetaClassE
__ZN12OSOrderedSet10setOptionsEjjPv
__ZN12OSOrderedSet10superClassE
__ZN12OSOrderedSet11orderObjectEPK15OSMetaClassBase
__ZN12OSOrderedSet12removeObjectEPK15OSMetaClassBase
__ZN12OSOrderedSet12withCapacityEjPFlPK15OSMetaClassBaseS2_PvES3_
__ZN12OSOrderedSet13setLastObjectEPK15OSMetaClassBase
__ZN12OSOrderedSet14copyCollectionEP12OSDictionary
__ZN12OSOrderedSet14ensureCapacityEj
__ZN12OSOrderedSet14getOrderingRefEv
__ZN12OSOrderedSet14setFirstObjectEPK15OSMetaClassBase
__ZN12OSOrderedSet15flushCollectionEv
__ZN12OSOrderedSet16initWithCapacityEjPFlPK15OSMetaClassBaseS2_PvES3_
__ZN12OSOrderedSet20setCapacityIncrementEj
__ZN12OSOrderedSet22_RESERVEDOSOrderedSet0Ev
__ZN12OSOrderedSet22_RESERVEDOSOrderedSet1Ev
__ZN12OSOrderedSet22_RESERVEDOSOrderedSet2Ev
__ZN12OSOrderedSet22_RESERVEDOSOrderedSet3Ev
__ZN12OSOrderedSet22_RESERVEDOSOrderedSet4Ev
__ZN12OSOrderedSet22_RESERVEDOSOrderedSet5Ev
__ZN12OSOrderedSet22_RESERVEDOSOrderedSet6Ev
__ZN12OSOrderedSet22_RESERVEDOSOrderedSet7Ev
__ZN12OSOrderedSet4freeEv
__ZN12OSOrderedSet9MetaClassC1Ev
__ZN12OSOrderedSet9MetaClassC2Ev
__ZN12OSOrderedSet9metaClassE
__ZN12OSOrderedSet9setObjectEPK15OSMetaClassBase
__ZN12OSOrderedSet9setObjectEjPK15OSMetaClassBase
__ZN12OSOrderedSetC1EPK11OSMetaClass
__ZN12OSOrderedSetC1Ev
__ZN12OSOrderedSetC2EPK11OSMetaClass
__ZN12OSOrderedSetC2Ev
__ZN12OSOrderedSetD0Ev
__ZN12OSOrderedSetD2Ev
__ZN12OSSerializer10gMetaClassE
__ZN12OSSerializer10superClassE
__ZN12OSSerializer9MetaClassC1Ev
__ZN12OSSerializer9MetaClassC2Ev
__ZN12OSSerializer9forTargetEPvPFbS0_S0_P11OSSerializeES0_
__ZN12OSSerializer9metaClassE
__ZN12OSSerializerC1EPK11OSMetaClass
__ZN12OSSerializerC1Ev
__ZN12OSSerializerC2EPK11OSMetaClass
__ZN12OSSerializerC2Ev
__ZN12OSSerializerD0Ev
__ZN12OSSerializerD2Ev
__ZN12OSSymbolPool12insertSymbolEP8OSSymbol
__ZN12OSSymbolPool12removeSymbolEP8OSSymbol
__ZN12OSSymbolPool13initHashStateEv
__ZN12OSSymbolPool13nextHashStateEP17OSSymbolPoolState
__ZN12OSSymbolPool18reconstructSymbolsEv
__ZN12OSSymbolPool4initEv
__ZN12OSSymbolPool4log2Ej
__ZN12OSSymbolPool6exp2mlEj
__ZN12OSSymbolPoolC1EPKS_
__ZN12OSSymbolPoolC2EPKS_
__ZN12OSSymbolPoolD0Ev
__ZN12OSSymbolPoolD1Ev
__ZN12OSSymbolPoolD2Ev
__ZN12OSSymbolPooldlEPvm
__ZN12OSSymbolPoolnwEm
__ZN15OSMetaClassBase12safeMetaCastEPKS_PK11OSMetaClass
__ZN15OSMetaClassBase13checkTypeInstEPKS_S1_
__ZN15OSMetaClassBase25_RESERVEDOSMetaClassBase3Ev
__ZN15OSMetaClassBase25_RESERVEDOSMetaClassBase4Ev
__ZN15OSMetaClassBase25_RESERVEDOSMetaClassBase5Ev
__ZN15OSMetaClassBase25_RESERVEDOSMetaClassBase6Ev
__ZN15OSMetaClassBase25_RESERVEDOSMetaClassBase7Ev
__ZN15OSMetaClassBaseC1Ev
__ZN15OSMetaClassBaseC2Ev
__ZN15OSMetaClassBaseD0Ev
__ZN15OSMetaClassBaseD2Ev
__ZN15OSMetaClassMetaC1Ev
__ZN15OSMetaClassMetaC2Ev
__ZN20OSCollectionIterator10gMetaClassE
__ZN20OSCollectionIterator10superClassE
__ZN20OSCollectionIterator13getNextObjectEv
__ZN20OSCollectionIterator14withCollectionEPK12OSCollection
__ZN20OSCollectionIterator18initWithCollectionEPK12OSCollection
__ZN20OSCollectionIterator4freeEv
__ZN20OSCollectionIterator5resetEv
__ZN20OSCollectionIterator7isValidEv
__ZN20OSCollectionIterator9MetaClassC1Ev
__ZN20OSCollectionIterator9MetaClassC2Ev
__ZN20OSCollectionIterator9metaClassE
__ZN20OSCollectionIteratorC1EPK11OSMetaClass
__ZN20OSCollectionIteratorC1Ev
__ZN20OSCollectionIteratorC2EPK11OSMetaClass
__ZN20OSCollectionIteratorC2Ev
__ZN20OSCollectionIteratorD0Ev
__ZN20OSCollectionIteratorD2Ev
__ZN5OSSet10gMetaClassE
__ZN5OSSet10setOptionsEjjPv
__ZN5OSSet10superClassE
__ZN5OSSet11initWithSetEPKS_j
__ZN5OSSet11withObjectsEPPK8OSObjectjj
__ZN5OSSet12removeObjectEPK15OSMetaClassBase
__ZN5OSSet12withCapacityEj
__ZN5OSSet13initWithArrayEPK7OSArrayj
__ZN5OSSet14copyCollectionEP12OSDictionary
__ZN5OSSet14ensureCapacityEj
__ZN5OSSet15_RESERVEDOSSet0Ev
__ZN5OSSet15_RESERVEDOSSet1Ev
__ZN5OSSet15_RESERVEDOSSet2Ev
__ZN5OSSet15_RESERVEDOSSet3Ev
__ZN5OSSet15_RESERVEDOSSet4Ev
__ZN5OSSet15_RESERVEDOSSet5Ev
__ZN5OSSet15_RESERVEDOSSet6Ev
__ZN5OSSet15_RESERVEDOSSet7Ev
__ZN5OSSet15flushCollectionEv
__ZN5OSSet15initWithObjectsEPPK8OSObjectjj
__ZN5OSSet16initWithCapacityEj
__ZN5OSSet20setCapacityIncrementEj
__ZN5OSSet4freeEv
__ZN5OSSet5mergeEPK7OSArray
__ZN5OSSet5mergeEPKS_
__ZN5OSSet7withSetEPKS_j
__ZN5OSSet9MetaClassC1Ev
__ZN5OSSet9MetaClassC2Ev
__ZN5OSSet9metaClassE
__ZN5OSSet9setObjectEPK15OSMetaClassBase
__ZN5OSSet9withArrayEPK7OSArrayj
__ZN5OSSetC1EPK11OSMetaClass
__ZN5OSSetC1Ev
__ZN5OSSetC2EPK11OSMetaClass
__ZN5OSSetC2Ev
__ZN5OSSetD0Ev
__ZN5OSSetD2Ev
__ZN6OSData10appendByteEhj
__ZN6OSData10gMetaClassE
__ZN6OSData10superClassE
__ZN6OSData11appendBytesEPKS_
__ZN6OSData11appendBytesEPKvj
__ZN6OSData12initWithDataEPKS_
__ZN6OSData12initWithDataEPKS_jj
__ZN6OSData12withCapacityEj
__ZN6OSData13initWithBytesEPKvj
__ZN6OSData14ensureCapacityEj
__ZN6OSData15withBytesNoCopyEPvj
__ZN6OSData16_RESERVEDOSData0Ev
__ZN6OSData16_RESERVEDOSData1Ev
__ZN6OSData16_RESERVEDOSData2Ev
__ZN6OSData16_RESERVEDOSData3Ev
__ZN6OSData16_RESERVEDOSData4Ev
__ZN6OSData16_RESERVEDOSData5Ev
__ZN6OSData16_RESERVEDOSData6Ev
__ZN6OSData16_RESERVEDOSData7Ev
__ZN6OSData16initWithCapacityEj
__ZN6OSData19initWithBytesNoCopyEPvj
__ZN6OSData20setCapacityIncrementEj
__ZN6OSData4freeEv
__ZN6OSData8withDataEPKS_
__ZN6OSData8withDataEPKS_jj
__ZN6OSData9MetaClassC1Ev
__ZN6OSData9MetaClassC2Ev
__ZN6OSData9metaClassE
__ZN6OSData9withBytesEPKvj
__ZN6OSDataC1EPK11OSMetaClass
__ZN6OSDataC1Ev
__ZN6OSDataC2EPK11OSMetaClass
__ZN6OSDataC2Ev
__ZN6OSDataD0Ev
__ZN6OSDataD2Ev
__ZN7OSArray10gMetaClassE
__ZN7OSArray10setOptionsEjjPv
__ZN7OSArray10superClassE
__ZN7OSArray11withObjectsEPPK8OSObjectjj
__ZN7OSArray12removeObjectEj
__ZN7OSArray12withCapacityEj
__ZN7OSArray13initWithArrayEPKS_j
__ZN7OSArray13replaceObjectEjPK15OSMetaClassBase
__ZN7OSArray14copyCollectionEP12OSDictionary
__ZN7OSArray14ensureCapacityEj
__ZN7OSArray15flushCollectionEv
__ZN7OSArray15initWithObjectsEPPK8OSObjectjj
__ZN7OSArray16initWithCapacityEj
__ZN7OSArray17_RESERVEDOSArray0Ev
__ZN7OSArray17_RESERVEDOSArray1Ev
__ZN7OSArray17_RESERVEDOSArray2Ev
__ZN7OSArray17_RESERVEDOSArray3Ev
__ZN7OSArray17_RESERVEDOSArray4Ev
__ZN7OSArray17_RESERVEDOSArray5Ev
__ZN7OSArray17_RESERVEDOSArray6Ev
__ZN7OSArray17_RESERVEDOSArray7Ev
__ZN7OSArray20setCapacityIncrementEj
__ZN7OSArray4freeEv
__ZN7OSArray5mergeEPKS_
__ZN7OSArray9MetaClassC1Ev
__ZN7OSArray9MetaClassC2Ev
__ZN7OSArray9metaClassE
__ZN7OSArray9setObjectEPK15OSMetaClassBase
__ZN7OSArray9setObjectEjPK15OSMetaClassBase
__ZN7OSArray9withArrayEPKS_j
__ZN7OSArrayC1EPK11OSMetaClass
__ZN7OSArrayC1Ev
__ZN7OSArrayC2EPK11OSMetaClass
__ZN7OSArrayC2Ev
__ZN7OSArrayD0Ev
__ZN7OSArrayD2Ev
__ZN8OSNumber10gMetaClassE
__ZN8OSNumber10superClassE
__ZN8OSNumber10withNumberEPKcj
__ZN8OSNumber10withNumberEyj
__ZN8OSNumber18_RESERVEDOSNumber0Ev
__ZN8OSNumber18_RESERVEDOSNumber1Ev
__ZN8OSNumber18_RESERVEDOSNumber2Ev
__ZN8OSNumber18_RESERVEDOSNumber3Ev
__ZN8OSNumber18_RESERVEDOSNumber4Ev
__ZN8OSNumber18_RESERVEDOSNumber5Ev
__ZN8OSNumber18_RESERVEDOSNumber6Ev
__ZN8OSNumber18_RESERVEDOSNumber7Ev
__ZN8OSNumber4freeEv
__ZN8OSNumber4initEPKcj
__ZN8OSNumber4initEyj
__ZN8OSNumber8addValueEx
__ZN8OSNumber8setValueEy
__ZN8OSNumber9MetaClassC1Ev
__ZN8OSNumber9MetaClassC2Ev
__ZN8OSNumber9metaClassE
__ZN8OSNumberC1EPK11OSMetaClass
__ZN8OSNumberC1Ev
__ZN8OSNumberC2EPK11OSMetaClass
__ZN8OSNumberC2Ev
__ZN8OSNumberD0Ev
__ZN8OSNumberD2Ev
__ZN8OSObject10gMetaClassE
__ZN8OSObject10superClassE
__ZN8OSObject18_RESERVEDOSObject0Ev
__ZN8OSObject18_RESERVEDOSObject1Ev
__ZN8OSObject18_RESERVEDOSObject2Ev
__ZN8OSObject18_RESERVEDOSObject3Ev
__ZN8OSObject18_RESERVEDOSObject4Ev
__ZN8OSObject18_RESERVEDOSObject5Ev
__ZN8OSObject18_RESERVEDOSObject6Ev
__ZN8OSObject18_RESERVEDOSObject7Ev
__ZN8OSObject18_RESERVEDOSObject8Ev
__ZN8OSObject18_RESERVEDOSObject9Ev
__ZN8OSObject19_RESERVEDOSObject10Ev
__ZN8OSObject19_RESERVEDOSObject11Ev
__ZN8OSObject19_RESERVEDOSObject12Ev
__ZN8OSObject19_RESERVEDOSObject13Ev
__ZN8OSObject19_RESERVEDOSObject14Ev
__ZN8OSObject19_RESERVEDOSObject15Ev
__ZN8OSObject19_RESERVEDOSObject16Ev
__ZN8OSObject19_RESERVEDOSObject17Ev
__ZN8OSObject19_RESERVEDOSObject18Ev
__ZN8OSObject19_RESERVEDOSObject19Ev
__ZN8OSObject19_RESERVEDOSObject20Ev
__ZN8OSObject19_RESERVEDOSObject21Ev
__ZN8OSObject19_RESERVEDOSObject22Ev
__ZN8OSObject19_RESERVEDOSObject23Ev
__ZN8OSObject19_RESERVEDOSObject24Ev
__ZN8OSObject19_RESERVEDOSObject25Ev
__ZN8OSObject19_RESERVEDOSObject26Ev
__ZN8OSObject19_RESERVEDOSObject27Ev
__ZN8OSObject19_RESERVEDOSObject28Ev
__ZN8OSObject19_RESERVEDOSObject29Ev
__ZN8OSObject19_RESERVEDOSObject30Ev
__ZN8OSObject19_RESERVEDOSObject31Ev
__ZN8OSObject4freeEv
__ZN8OSObject4initEv
__ZN8OSObject9MetaClassC1Ev
__ZN8OSObject9MetaClassC2Ev
__ZN8OSObject9metaClassE
__ZN8OSObjectC1EPK11OSMetaClass
__ZN8OSObjectC1Ev
__ZN8OSObjectC2EPK11OSMetaClass
__ZN8OSObjectC2Ev
__ZN8OSObjectD0Ev
__ZN8OSObjectD2Ev
__ZN8OSObjectdlEPvm
__ZN8OSObjectnwEm
__ZN8OSString10gMetaClassE
__ZN8OSString10superClassE
__ZN8OSString10withStringEPKS_
__ZN8OSString11withCStringEPKc
__ZN8OSString14initWithStringEPKS_
__ZN8OSString15initWithCStringEPKc
__ZN8OSString17withCStringNoCopyEPKc
__ZN8OSString18_RESERVEDOSString0Ev
__ZN8OSString18_RESERVEDOSString1Ev
__ZN8OSString18_RESERVEDOSString2Ev
__ZN8OSString18_RESERVEDOSString3Ev
__ZN8OSString18_RESERVEDOSString4Ev
__ZN8OSString18_RESERVEDOSString5Ev
__ZN8OSString18_RESERVEDOSString6Ev
__ZN8OSString18_RESERVEDOSString7Ev
__ZN8OSString18_RESERVEDOSString8Ev
__ZN8OSString18_RESERVEDOSString9Ev
__ZN8OSString19_RESERVEDOSString10Ev
__ZN8OSString19_RESERVEDOSString11Ev
__ZN8OSString19_RESERVEDOSString12Ev
__ZN8OSString19_RESERVEDOSString13Ev
__ZN8OSString19_RESERVEDOSString14Ev
__ZN8OSString19_RESERVEDOSString15Ev
__ZN8OSString21initWithCStringNoCopyEPKc
__ZN8OSString4freeEv
__ZN8OSString7setCharEcj
__ZN8OSString9MetaClassC1Ev
__ZN8OSString9MetaClassC2Ev
__ZN8OSString9metaClassE
__ZN8OSStringC1EPK11OSMetaClass
__ZN8OSStringC1Ev
__ZN8OSStringC2EPK11OSMetaClass
__ZN8OSStringC2Ev
__ZN8OSStringD0Ev
__ZN8OSStringD2Ev
__ZN8OSSymbol10gMetaClassE
__ZN8OSSymbol10initializeEv
__ZN8OSSymbol10superClassE
__ZN8OSSymbol10withStringEPK8OSString
__ZN8OSSymbol11withCStringEPKc
__ZN8OSSymbol14initWithStringEPK8OSString
__ZN8OSSymbol15initWithCStringEPKc
__ZN8OSSymbol17withCStringNoCopyEPKc
__ZN8OSSymbol18_RESERVEDOSSymbol0Ev
__ZN8OSSymbol18_RESERVEDOSSymbol1Ev
__ZN8OSSymbol18_RESERVEDOSSymbol2Ev
__ZN8OSSymbol18_RESERVEDOSSymbol3Ev
__ZN8OSSymbol18_RESERVEDOSSymbol4Ev
__ZN8OSSymbol18_RESERVEDOSSymbol5Ev
__ZN8OSSymbol18_RESERVEDOSSymbol6Ev
__ZN8OSSymbol18_RESERVEDOSSymbol7Ev
__ZN8OSSymbol18checkForPageUnloadEPvS0_
__ZN8OSSymbol21initWithCStringNoCopyEPKc
__ZN8OSSymbol4freeEv
__ZN8OSSymbol9MetaClassC1Ev
__ZN8OSSymbol9MetaClassC2Ev
__ZN8OSSymbol9metaClassE
__ZN8OSSymbolC1EPK11OSMetaClass
__ZN8OSSymbolC1Ev
__ZN8OSSymbolC2EPK11OSMetaClass
__ZN8OSSymbolC2Ev
__ZN8OSSymbolD0Ev
__ZN8OSSymbolD2Ev
__ZN9OSBoolean10gMetaClassE
__ZN9OSBoolean10initializeEv
__ZN9OSBoolean10superClassE
__ZN9OSBoolean11withBooleanEb
__ZN9OSBoolean19_RESERVEDOSBoolean0Ev
__ZN9OSBoolean19_RESERVEDOSBoolean1Ev
__ZN9OSBoolean19_RESERVEDOSBoolean2Ev
__ZN9OSBoolean19_RESERVEDOSBoolean3Ev
__ZN9OSBoolean19_RESERVEDOSBoolean4Ev
__ZN9OSBoolean19_RESERVEDOSBoolean5Ev
__ZN9OSBoolean19_RESERVEDOSBoolean6Ev
__ZN9OSBoolean19_RESERVEDOSBoolean7Ev
__ZN9OSBoolean4freeEv
__ZN9OSBoolean9MetaClassC1Ev
__ZN9OSBoolean9MetaClassC2Ev
__ZN9OSBoolean9metaClassE
__ZN9OSBooleanC1EPK11OSMetaClass
__ZN9OSBooleanC1Ev
__ZN9OSBooleanC2EPK11OSMetaClass
__ZN9OSBooleanC2Ev
__ZN9OSBooleanD0Ev
__ZN9OSBooleanD2Ev
__ZNK10OSIterator12getMetaClassEv
__ZNK10OSIterator9MetaClass5allocEv
__ZNK11OSMetaClass12getClassNameEv
__ZNK11OSMetaClass12getClassSizeEv
__ZNK11OSMetaClass12getMetaClassEv
__ZNK11OSMetaClass12taggedRetainEPKv
__ZNK11OSMetaClass13checkMetaCastEPK15OSMetaClassBase
__ZNK11OSMetaClass13getSuperClassEv
__ZNK11OSMetaClass13taggedReleaseEPKv
__ZNK11OSMetaClass13taggedReleaseEPKvi
__ZNK11OSMetaClass14getRetainCountEv
__ZNK11OSMetaClass14reservedCalledEi
__ZNK11OSMetaClass16getInstanceCountEv
__ZNK11OSMetaClass18instanceDestructedEv
__ZNK11OSMetaClass19instanceConstructedEv
__ZNK11OSMetaClass6retainEv
__ZNK11OSMetaClass7releaseEi
__ZNK11OSMetaClass7releaseEv
__ZNK11OSMetaClass9serializeEP11OSSerialize
__ZNK11OSSerialize11getCapacityEv
__ZNK11OSSerialize12getMetaClassEv
__ZNK11OSSerialize20getCapacityIncrementEv
__ZNK11OSSerialize4textEv
__ZNK11OSSerialize9MetaClass5allocEv
__ZNK11OSSerialize9getLengthEv
__ZNK12OSCollection12getMetaClassEv
__ZNK12OSCollection9MetaClass5allocEv
__ZNK12OSDictionary11getCapacityEv
__ZNK12OSDictionary12getMetaClassEv
__ZNK12OSDictionary12initIteratorEPv
__ZNK12OSDictionary12iteratorSizeEv
__ZNK12OSDictionary20getCapacityIncrementEv
__ZNK12OSDictionary24getNextObjectForIteratorEPvPP8OSObject
__ZNK12OSDictionary8getCountEv
__ZNK12OSDictionary9MetaClass5allocEv
__ZNK12OSDictionary9getObjectEPK8OSString
__ZNK12OSDictionary9getObjectEPK8OSSymbol
__ZNK12OSDictionary9getObjectEPKc
__ZNK12OSDictionary9isEqualToEPK15OSMetaClassBase
__ZNK12OSDictionary9isEqualToEPKS_
__ZNK12OSDictionary9isEqualToEPKS_PK12OSCollection
__ZNK12OSDictionary9serializeEP11OSSerialize
__ZNK12OSOrderedSet11getCapacityEv
__ZNK12OSOrderedSet12getMetaClassEv
__ZNK12OSOrderedSet12initIteratorEPv
__ZNK12OSOrderedSet12iteratorSizeEv
__ZNK12OSOrderedSet13getLastObjectEv
__ZNK12OSOrderedSet14containsObjectEPK15OSMetaClassBase
__ZNK12OSOrderedSet14getFirstObjectEv
__ZNK12OSOrderedSet20getCapacityIncrementEv
__ZNK12OSOrderedSet24getNextObjectForIteratorEPvPP8OSObject
__ZNK12OSOrderedSet6memberEPK15OSMetaClassBase
__ZNK12OSOrderedSet8getCountEv
__ZNK12OSOrderedSet9MetaClass5allocEv
__ZNK12OSOrderedSet9getObjectEj
__ZNK12OSOrderedSet9isEqualToEPK15OSMetaClassBase
__ZNK12OSOrderedSet9isEqualToEPKS_
__ZNK12OSSerializer12getMetaClassEv
__ZNK12OSSerializer9MetaClass5allocEv
__ZNK12OSSerializer9serializeEP11OSSerialize
__ZNK12OSSymbolPool10findSymbolEPKc
__ZNK15OSMetaClassBase8metaCastEPK11OSMetaClass
__ZNK15OSMetaClassBase8metaCastEPK8OSString
__ZNK15OSMetaClassBase8metaCastEPK8OSSymbol
__ZNK15OSMetaClassBase8metaCastEPKc
__ZNK15OSMetaClassBase9isEqualToEPKS_
__ZNK15OSMetaClassMeta5allocEv
__ZNK20OSCollectionIterator12getMetaClassEv
__ZNK20OSCollectionIterator9MetaClass5allocEv
__ZNK5OSSet11getCapacityEv
__ZNK5OSSet12getAnyObjectEv
__ZNK5OSSet12getMetaClassEv
__ZNK5OSSet12initIteratorEPv
__ZNK5OSSet12iteratorSizeEv
__ZNK5OSSet14containsObjectEPK15OSMetaClassBase
__ZNK5OSSet20getCapacityIncrementEv
__ZNK5OSSet24getNextObjectForIteratorEPvPP8OSObject
__ZNK5OSSet6memberEPK15OSMetaClassBase
__ZNK5OSSet8getCountEv
__ZNK5OSSet9MetaClass5allocEv
__ZNK5OSSet9isEqualToEPK15OSMetaClassBase
__ZNK5OSSet9isEqualToEPKS_
__ZNK5OSSet9serializeEP11OSSerialize
__ZNK6OSData11getCapacityEv
__ZNK6OSData12getMetaClassEv
__ZNK6OSData14getBytesNoCopyEjj
__ZNK6OSData14getBytesNoCopyEv
__ZNK6OSData20getCapacityIncrementEv
__ZNK6OSData9MetaClass5allocEv
__ZNK6OSData9getLengthEv
__ZNK6OSData9isEqualToEPK15OSMetaClassBase
__ZNK6OSData9isEqualToEPK8OSString
__ZNK6OSData9isEqualToEPKS_
__ZNK6OSData9isEqualToEPKvj
__ZNK6OSData9serializeEP11OSSerialize
__ZNK7OSArray11getCapacityEv
__ZNK7OSArray12getMetaClassEv
__ZNK7OSArray12initIteratorEPv
__ZNK7OSArray12iteratorSizeEv
__ZNK7OSArray13getLastObjectEv
__ZNK7OSArray20getCapacityIncrementEv
__ZNK7OSArray20getNextIndexOfObjectEPK15OSMetaClassBasej
__ZNK7OSArray24getNextObjectForIteratorEPvPP8OSObject
__ZNK7OSArray8getCountEv
__ZNK7OSArray9MetaClass5allocEv
__ZNK7OSArray9getObjectEj
__ZNK7OSArray9isEqualToEPK15OSMetaClassBase
__ZNK7OSArray9isEqualToEPKS_
__ZNK7OSArray9serializeEP11OSSerialize
__ZNK8OSNumber12getMetaClassEv
__ZNK8OSNumber12numberOfBitsEv
__ZNK8OSNumber13numberOfBytesEv
__ZNK8OSNumber17unsigned8BitValueEv
__ZNK8OSNumber18unsigned16BitValueEv
__ZNK8OSNumber18unsigned32BitValueEv
__ZNK8OSNumber18unsigned64BitValueEv
__ZNK8OSNumber9MetaClass5allocEv
__ZNK8OSNumber9isEqualToEPK15OSMetaClassBase
__ZNK8OSNumber9isEqualToEPKS_
__ZNK8OSNumber9serializeEP11OSSerialize
__ZNK8OSObject12getMetaClassEv
__ZNK8OSObject12taggedRetainEPKv
__ZNK8OSObject13taggedReleaseEPKv
__ZNK8OSObject13taggedReleaseEPKvi
__ZNK8OSObject14getRetainCountEv
__ZNK8OSObject6retainEv
__ZNK8OSObject7releaseEi
__ZNK8OSObject7releaseEv
__ZNK8OSObject9MetaClass5allocEv
__ZNK8OSObject9serializeEP11OSSerialize
__ZNK8OSString12getMetaClassEv
__ZNK8OSString16getCStringNoCopyEv
__ZNK8OSString7getCharEj
__ZNK8OSString9MetaClass5allocEv
__ZNK8OSString9getLengthEv
__ZNK8OSString9isEqualToEPK15OSMetaClassBase
__ZNK8OSString9isEqualToEPK6OSData
__ZNK8OSString9isEqualToEPKS_
__ZNK8OSString9isEqualToEPKc
__ZNK8OSString9serializeEP11OSSerialize
__ZNK8OSSymbol12getMetaClassEv
__ZNK8OSSymbol13taggedReleaseEPKv
__ZNK8OSSymbol13taggedReleaseEPKvi
__ZNK8OSSymbol9MetaClass5allocEv
__ZNK8OSSymbol9isEqualToEPK15OSMetaClassBase
__ZNK8OSSymbol9isEqualToEPKS_
__ZNK8OSSymbol9isEqualToEPKc
__ZNK9OSBoolean12getMetaClassEv
__ZNK9OSBoolean12taggedRetainEPKv
__ZNK9OSBoolean13taggedReleaseEPKvi
__ZNK9OSBoolean6isTrueEv
__ZNK9OSBoolean7isFalseEv
__ZNK9OSBoolean8getValueEv
__ZNK9OSBoolean9MetaClass5allocEv
__ZNK9OSBoolean9isEqualToEPK15OSMetaClassBase
__ZNK9OSBoolean9isEqualToEPKS_
__ZNK9OSBoolean9serializeEP11OSSerialize
__ZTV10OSIterator
__ZTV11OSMetaClass
__ZTV11OSSerialize
__ZTV12OSCollection
__ZTV12OSDictionary
__ZTV12OSOrderedSet
__ZTV12OSSerializer
__ZTV12OSSymbolPool
__ZTV15OSMetaClassBase
__ZTV15OSMetaClassMeta
__ZTV20OSCollectionIterator
__ZTV5OSSet
__ZTV6OSData
__ZTV7OSArray
__ZTV8OSNumber
__ZTV8OSObject
__ZTV8OSString
__ZTV8OSSymbol
__ZTV9OSBoolean
__ZTVN10OSIterator9MetaClassE
__ZTVN11OSSerialize9MetaClassE
__ZTVN12OSCollection9MetaClassE
__ZTVN12OSDictionary9MetaClassE
__ZTVN12OSOrderedSet9MetaClassE
__ZTVN12OSSerializer9MetaClassE
__ZTVN20OSCollectionIterator9MetaClassE
__ZTVN5OSSet9MetaClassE
__ZTVN6OSData9MetaClassE
__ZTVN7OSArray9MetaClassE
__ZTVN8OSNumber9MetaClassE
__ZTVN8OSObject9MetaClassE
__ZTVN8OSString9MetaClassE
__ZTVN8OSSymbol9MetaClassE
__ZTVN9OSBoolean9MetaClassE
__ZdlPv
__Znwm
___cxa_pure_virtual
_atoi
_bcmp
_bcopy
_bcopy_phys
_bzero
_bzero_phys
_copyin
_copyinstr
_copyout
_copyoutstr
_crc32
_debug_ivars_size
_ffs
_flush_dcache
_flush_dcache64
_inet_ntop
_invalidate_icache
_invalidate_icache64
_itoa
_kOSBooleanFalse
_kOSBooleanTrue
_kern_os_free
_kern_os_malloc
_kern_os_malloc_size
_kern_os_realloc
_kprintf
_lck_attr_alloc_init
_lck_attr_free
_lck_attr_setdebug
_lck_attr_setdefault
_lck_grp_alloc_init
_lck_grp_attr_alloc_init
_lck_grp_attr_free
_lck_grp_attr_setdefault
_lck_grp_attr_setstat
_lck_grp_free
_lck_mtx_alloc_init
_lck_mtx_destroy
_lck_mtx_free
_lck_mtx_init
_lck_mtx_lock
_lck_mtx_unlock
_lck_rw_alloc_init
_lck_rw_destroy
_lck_rw_free
_lck_rw_init
_lck_rw_lock
_lck_rw_lock_exclusive
_lck_rw_lock_shared
_lck_rw_unlock
_lck_rw_unlock_exclusive
_lck_rw_unlock_shared
_lck_spin_alloc_init
_lck_spin_destroy
_lck_spin_free
_lck_spin_init
_lck_spin_lock
_lck_spin_unlock
_memcmp
_memcpy
_memmove
_memset
_ml_at_interrupt_context
_ml_set_interrupts_enabled
_osrelease
_ostype
_page_mask
_page_shift
_page_size
_panic
_printf
_sprintf
_sscanf
_strcasecmp
_strcat
_strchr
_strcmp
_strcpy
_strlen
_strncasecmp
_strncat
_strncmp
_strncpy
_strprefix
_strtol
_strtoq
_strtoul
_strtouq
_sysctlbyname
_uuid_clear
_uuid_compare
_uuid_copy
_uuid_generate
_uuid_generate_random
_uuid_generate_time
_uuid_is_null
_uuid_parse
_uuid_unparse
_uuid_unparse_lower
_uuid_unparse_upper
_version
_version_major
_version_minor
_version_prerelease_level
_version_revision
_version_stage
_version_variant
_vsnprintf
_vsprintf
_vsscanf
